ccopy_reg
_reconstructor
p0
(ctour_guide_system.src.data.school_data
School_data
p1
c__builtin__
object
p2
Ntp3
Rp4
(dp5
S'point_map'
p6
(lp7
(lp8
I-1
aI-1
aI-1
aI-1
aI-1
aI-1
aI-1
aI-1
aI-1
aI-1
aI-1
aI-1
aI-1
aI-1
aI-1
aI-1
aI-1
aI-1
aI-1
aI-1
aI-1
aI-1
aI-1
aI-1
aI-1
aI-1
aI-1
aI-1
aI-1
aI-1
aI-1
aI-1
aI-1
aI-1
aI-1
aI-1
aI-1
aI-1
aI-1
aI-1
aI-1
aI-1
aI-1
aI-1
aI-1
aI-1
aI-1
aI-1
aI-1
aI-1
aI-1
aI-1
aI-1
aI-1
aI-1
aI-1
aI-1
aI-1
aI-1
aI-1
aI-1
aI-1
aI-1
aI-1
aI-1
aI-1
aI-1
aI-1
aI-1
aI-1
aI-1
aI-1
aI-1
aI-1
aI-1
aI-1
aI-1
aI-1
aI-1
aI-1
aI-1
aI-1
aI-1
aI-1
aI-1
aI-1
aI-1
aI-1
aI-1
aI-1
aI-1
aI-1
aI-1
aI-1
aI-1
aI-1
aI-1
aI-1
aI-1
aI-1
aa(lp9
I-1
aI-1
aI-1
aI-1
aI-1
aI-1
aI-1
aI-1
aI-1
aI-1
aI-1
aI-1
aI-1
aI-1
aI-1
aI-1
aI-1
aI-1
aI-1
aI-1
aI-1
aI-1
aI-1
aI-1
aI-1
aI-1
aI-1
aI-1
aI-1
aI-1
aI-1
aI-1
aI-1
aI-1
aI-1
aI-1
aI-1
aI-1
aI-1
aI-1
aI-1
aI-1
aI-1
aI-1
aI-1
aI-1
aI-1
aI-1
aI-1
aI-1
aI-1
aI-1
aI-1
aI-1
aI-1
aI-1
aI-1
aI-1
aI-1
aI-1
aI-1
aI-1
aI-1
aI-1
aI-1
aI-1
aI-1
aI-1
aI-1
aI-1
aI-1
aI-1
aI-1
aI-1
aI-1
aI-1
aI-1
aI-1
aI-1
aI-1
aI-1
aI-1
aI-1
aI-1
aI-1
aI-1
aI-1
aI-1
aI-1
aI-1
aI-1
aI-1
aI-1
aI-1
aI-1
aI-1
aI-1
aI-1
aI-1
aI-1
aa(lp10
I-1
aI-1
aI-1
aI-1
aI-1
aI-1
aI-1
aI-1
aI-1
aI-1
aI-1
aI-1
aI-1
aI-1
aI-1
aI-1
aI-1
aI-1
aI-1
aI-1
aI-1
aI-1
aI-1
aI-1
aI-1
aI-1
aI-1
aI-1
aI-1
aI-1
aI-1
aI-1
aI-1
aI-1
aI-1
aI-1
aI-1
aI-1
aI-1
aI-1
aI-1
aI-1
aI-1
aI-1
aI-1
aI-1
aI-1
aI-1
aI-1
aI-1
aI-1
aI-1
aI-1
aI-1
aI-1
aI-1
aI-1
aI-1
aI-1
aI-1
aI-1
aI-1
aI-1
aI-1
aI-1
aI-1
aI-1
aI-1
aI-1
aI-1
aI-1
aI-1
aI-1
aI-1
aI-1
aI-1
aI-1
aI-1
aI-1
aI-1
aI-1
aI-1
aI-1
aI-1
aI-1
aI-1
aI-1
aI-1
aI-1
aI-1
aI-1
aI-1
aI-1
aI-1
aI-1
aI-1
aI-1
aI-1
aI-1
aI-1
aa(lp11
I-1
aI-1
aI-1
aI-1
aI-1
aI-1
aI-1
aI-1
aI-1
aI-1
aI-1
aI-1
aI-1
aI-1
aI-1
aI-1
aI-1
aI-1
aI-1
aI-1
aI-1
aI-1
aI-1
aI-1
aI-1
aI-1
aI-1
aI-1
aI-1
aI-1
aI-1
aI-1
aI-1
aI-1
aI-1
aI-1
aI-1
aI-1
aI-1
aI-1
aI-1
aI-1
aI-1
aI-1
aI-1
aI-1
aI-1
aI-1
aI-1
aI-1
aI-1
aI-1
aI-1
aI-1
aI-1
aI-1
aI-1
aI-1
aI-1
aI-1
aI-1
aI-1
aI-1
aI-1
aI-1
aI-1
aI-1
aI-1
aI-1
aI-1
aI-1
aI-1
aI-1
aI-1
aI-1
aI-1
aI-1
aI-1
aI-1
aI-1
aI-1
aI-1
aI-1
aI-1
aI-1
aI-1
aI-1
aI-1
aI-1
aI-1
aI-1
aI-1
aI-1
aI-1
aI-1
aI-1
aI-1
aI-1
aI-1
aI-1
aa(lp12
I-1
aI-1
aI-1
aI-1
aI-1
aI-1
aI-1
aI-1
aI-1
aI-1
aI-1
aI-1
aI-1
aI-1
aI-1
aI-1
aI-1
aI-1
aI-1
aI-1
aI-1
aI-1
aI-1
aI-1
aI-1
aI-1
aI-1
aI-1
aI-1
aI-1
aI-1
aI-1
aI-1
aI-1
aI-1
aI-1
aI-1
aI-1
aI-1
aI-1
aI-1
aI-1
aI-1
aI-1
aI-1
aI-1
aI-1
aI-1
aI-1
aI-1
aI-1
aI-1
aI-1
aI-1
aI-1
aI-1
aI-1
aI-1
aI-1
aI-1
aI-1
aI-1
aI-1
aI-1
aI-1
aI-1
aI-1
aI-1
aI-1
aI-1
aI-1
aI-1
aI-1
aI-1
aI-1
aI-1
aI-1
aI-1
aI-1
aI-1
aI-1
aI-1
aI-1
aI-1
aI-1
aI-1
aI-1
aI-1
aI-1
aI-1
aI-1
aI-1
aI-1
aI-1
aI-1
aI-1
aI-1
aI-1
aI-1
aI-1
aa(lp13
I-1
aI-1
aI-1
aI-1
aI-1
aI-1
aI-1
aI-1
aI-1
aI-1
aI-1
aI-1
aI-1
aI-1
aI-1
aI-1
aI-1
aI-1
aI-1
aI-1
aI-1
aI-1
aI-1
aI-1
aI-1
aI-1
aI-1
aI-1
aI-1
aI-1
aI-1
aI-1
aI-1
aI-1
aI-1
aI-1
aI-1
aI-1
aI-1
aI-1
aI-1
aI-1
aI-1
aI-1
aI-1
aI-1
aI-1
aI-1
aI-1
aI-1
aI-1
aI-1
aI-1
aI-1
aI-1
aI-1
aI-1
aI-1
aI-1
aI-1
aI-1
aI-1
aI-1
aI-1
aI-1
aI-1
aI-1
aI-1
aI-1
aI-1
aI-1
aI-1
aI-1
aI-1
aI-1
aI-1
aI-1
aI-1
aI-1
aI-1
aI-1
aI-1
aI-1
aI-1
aI-1
aI-1
aI-1
aI-1
aI-1
aI-1
aI-1
aI-1
aI-1
aI-1
aI-1
aI-1
aI-1
aI-1
aI-1
aI-1
aa(lp14
I-1
aI-1
aI-1
aI-1
aI-1
aI-1
aI-1
aI-1
aI-1
aI-1
aI-1
aI-1
aI-1
aI-1
aI-1
aI-1
aI-1
aI-1
aI-1
aI-1
aI-1
aI-1
aI-1
aI-1
aI-1
aI-1
aI-1
aI-1
aI-1
aI-1
aI-1
aI-1
aI-1
aI-1
aI-1
aI-1
aI-1
aI-1
aI-1
aI-1
aI-1
aI-1
aI-1
aI-1
aI-1
aI-1
aI-1
aI-1
aI-1
aI-1
aI-1
aI-1
aI-1
aI-1
aI-1
aI-1
aI-1
aI-1
aI-1
aI-1
aI-1
aI-1
aI-1
aI-1
aI-1
aI-1
aI-1
aI-1
aI-1
aI-1
aI-1
aI-1
aI-1
aI-1
aI-1
aI-1
aI-1
aI-1
aI-1
aI-1
aI-1
aI-1
aI-1
aI-1
aI-1
aI-1
aI-1
aI-1
aI-1
aI-1
aI-1
aI-1
aI-1
aI-1
aI-1
aI-1
aI-1
aI-1
aI-1
aI-1
aa(lp15
I-1
aI-1
aI-1
aI-1
aI-1
aI-1
aI-1
aI-1
aI-1
aI-1
aI-1
aI-1
aI-1
aI-1
aI-1
aI-1
aI-1
aI-1
aI-1
aI-1
aI-1
aI-1
aI-1
aI-1
aI-1
aI-1
aI-1
aI-1
aI-1
aI-1
aI-1
aI-1
aI-1
aI-1
aI-1
aI-1
aI-1
aI-1
aI-1
aI-1
aI-1
aI-1
aI-1
aI-1
aI-1
aI-1
aI-1
aI-1
aI-1
aI-1
aI-1
aI-1
aI-1
aI-1
aI-1
aI-1
aI-1
aI-1
aI-1
aI-1
aI-1
aI-1
aI-1
aI-1
aI-1
aI-1
aI-1
aI-1
aI-1
aI-1
aI-1
aI-1
aI-1
aI-1
aI-1
aI-1
aI-1
aI-1
aI-1
aI-1
aI-1
aI-1
aI-1
aI-1
aI-1
aI-1
aI-1
aI-1
aI-1
aI-1
aI-1
aI-1
aI-1
aI-1
aI-1
aI-1
aI-1
aI-1
aI-1
aI-1
aa(lp16
I-1
aI-1
aI-1
aI-1
aI-1
aI-1
aI-1
aI-1
aI-1
aI-1
aI-1
aI-1
aI-1
aI-1
aI-1
aI-1
aI-1
aI-1
aI-1
aI-1
aI-1
aI-1
aI-1
aI-1
aI-1
aI-1
aI-1
aI-1
aI-1
aI-1
aI-1
aI-1
aI-1
aI-1
aI-1
aI-1
aI-1
aI-1
aI-1
aI-1
aI-1
aI-1
aI-1
aI-1
aI-1
aI-1
aI-1
aI-1
aI-1
aI-1
aI-1
aI-1
aI-1
aI-1
aI-1
aI-1
aI-1
aI-1
aI-1
aI-1
aI-1
aI-1
aI-1
aI-1
aI-1
aI-1
aI-1
aI-1
aI-1
aI-1
aI-1
aI-1
aI-1
aI-1
aI-1
aI-1
aI-1
aI-1
aI-1
aI-1
aI-1
aI-1
aI-1
aI-1
aI-1
aI-1
aI-1
aI-1
aI-1
aI-1
aI-1
aI-1
aI-1
aI-1
aI-1
aI-1
aI-1
aI-1
aI-1
aI-1
aa(lp17
I-1
aI-1
aI-1
aI-1
aI-1
aI-1
aI-1
aI-1
aI-1
aI-1
aI-1
aI-1
aI-1
aI-1
aI-1
aI-1
aI-1
aI-1
aI-1
aI-1
aI-1
aI-1
aI-1
aI-1
aI-1
aI-1
aI-1
aI-1
aI-1
aI-1
aI-1
aI-1
aI-1
aI-1
aI-1
aI-1
aI-1
aI-1
aI-1
aI-1
aI-1
aI-1
aI-1
aI-1
aI-1
aI-1
aI-1
aI-1
aI-1
aI-1
aI-1
aI-1
aI-1
aI-1
aI-1
aI-1
aI-1
aI-1
aI-1
aI-1
aI-1
aI-1
aI-1
aI-1
aI-1
aI-1
aI-1
aI-1
aI-1
aI-1
aI-1
aI-1
aI-1
aI-1
aI-1
aI-1
aI-1
aI-1
aI-1
aI-1
aI-1
aI-1
aI-1
aI-1
aI-1
aI-1
aI-1
aI-1
aI-1
aI-1
aI-1
aI-1
aI-1
aI-1
aI-1
aI-1
aI-1
aI-1
aI-1
aI-1
aa(lp18
I-1
aI-1
aI-1
aI-1
aI-1
aI-1
aI-1
aI-1
aI-1
aI-1
aI-1
aI-1
aI-1
aI-1
aI-1
aI-1
aI-1
aI-1
aI-1
aI-1
aI-1
aI-1
aI-1
aI-1
aI-1
aI-1
aI-1
aI-1
aI-1
aI-1
aI-1
aI-1
aI-1
aI-1
aI-1
aI-1
aI-1
aI-1
aI-1
aI-1
aI-1
aI-1
aI-1
aI-1
aI-1
aI-1
aI-1
aI-1
aI-1
aI-1
aI-1
aI-1
aI-1
aI-1
aI-1
aI-1
aI-1
aI-1
aI-1
aI-1
aI-1
aI-1
aI-1
aI-1
aI-1
aI-1
aI-1
aI-1
aI-1
aI-1
aI-1
aI-1
aI-1
aI-1
aI-1
aI-1
aI-1
aI-1
aI-1
aI-1
aI-1
aI-1
aI-1
aI-1
aI-1
aI-1
aI-1
aI-1
aI-1
aI-1
aI-1
aI-1
aI-1
aI-1
aI-1
aI-1
aI-1
aI-1
aI-1
aI-1
aa(lp19
I-1
aI-1
aI-1
aI-1
aI-1
aI-1
aI-1
aI-1
aI-1
aI-1
aI-1
aI-1
aI-1
aI-1
aI-1
aI-1
aI-1
aI-1
aI-1
aI-1
aI-1
aI-1
aI-1
aI-1
aI-1
aI-1
aI-1
aI-1
aI-1
aI-1
aI-1
aI-1
aI-1
aI-1
aI-1
aI-1
aI-1
aI-1
aI-1
aI-1
aI-1
aI-1
aI-1
aI-1
aI-1
aI-1
aI-1
aI-1
aI-1
aI-1
aI-1
aI-1
aI-1
aI-1
aI-1
aI-1
aI-1
aI-1
aI-1
aI-1
aI-1
aI-1
aI-1
aI-1
aI-1
aI-1
aI-1
aI-1
aI-1
aI-1
aI-1
aI-1
aI-1
aI-1
aI-1
aI-1
aI-1
aI-1
aI-1
aI-1
aI-1
aI-1
aI-1
aI-1
aI-1
aI-1
aI-1
aI-1
aI-1
aI-1
aI-1
aI-1
aI-1
aI-1
aI-1
aI-1
aI-1
aI-1
aI-1
aI-1
aa(lp20
I-1
aI-1
aI-1
aI-1
aI-1
aI-1
aI-1
aI-1
aI-1
aI-1
aI-1
aI-1
aI-1
aI-1
aI-1
aI-1
aI-1
aI-1
aI-1
aI-1
aI-1
aI-1
aI-1
aI-1
aI-1
aI-1
aI-1
aI-1
aI-1
aI-1
aI-1
aI-1
aI-1
aI-1
aI-1
aI-1
aI-1
aI-1
aI-1
aI-1
aI-1
aI-1
aI-1
aI-1
aI-1
aI-1
aI-1
aI-1
aI-1
aI-1
aI-1
aI-1
aI-1
aI-1
aI-1
aI-1
aI-1
aI-1
aI-1
aI-1
aI-1
aI-1
aI-1
aI-1
aI-1
aI-1
aI-1
aI-1
aI-1
aI-1
aI-1
aI-1
aI-1
aI-1
aI-1
aI-1
aI-1
aI-1
aI-1
aI-1
aI-1
aI-1
aI-1
aI-1
aI-1
aI-1
aI-1
aI-1
aI-1
aI-1
aI-1
aI-1
aI-1
aI-1
aI-1
aI-1
aI-1
aI-1
aI-1
aI-1
aa(lp21
I-1
aI-1
aI-1
aI-1
aI-1
aI-1
aI-1
aI-1
aI-1
aI-1
aI-1
aI-1
aI-1
aI-1
aI-1
aI-1
aI-1
aI-1
aI-1
aI-1
aI-1
aI-1
aI-1
aI-1
aI-1
aI-1
aI-1
aI-1
aI-1
aI-1
aI-1
aI-1
aI-1
aI-1
aI-1
aI-1
aI-1
aI-1
aI-1
aI-1
aI-1
aI-1
aI-1
aI-1
aI-1
aI-1
aI-1
aI-1
aI-1
aI-1
aI-1
aI-1
aI-1
aI-1
aI-1
aI-1
aI-1
aI-1
aI-1
aI-1
aI-1
aI-1
aI-1
aI-1
aI-1
aI-1
aI-1
aI-1
aI-1
aI-1
aI-1
aI-1
aI-1
aI-1
aI-1
aI-1
aI-1
aI-1
aI-1
aI-1
aI-1
aI-1
aI-1
aI-1
aI-1
aI-1
aI-1
aI-1
aI-1
aI-1
aI-1
aI-1
aI-1
aI-1
aI-1
aI-1
aI-1
aI-1
aI-1
aI-1
aa(lp22
I-1
aI-1
aI-1
aI-1
aI-1
aI-1
aI-1
aI-1
aI-1
aI-1
aI-1
aI-1
aI-1
aI-1
aI-1
aI-1
aI-1
aI-1
aI-1
aI-1
aI-1
aI-1
aI-1
aI-1
aI-1
aI-1
aI-1
aI-1
aI-1
aI-1
aI-1
aI-1
aI-1
aI-1
aI-1
aI-1
aI-1
aI-1
aI-1
aI-1
aI-1
aI-1
aI-1
aI-1
aI-1
aI-1
aI-1
aI-1
aI-1
aI-1
aI-1
aI-1
aI-1
aI-1
aI-1
aI-1
aI-1
aI-1
aI-1
aI-1
aI-1
aI-1
aI-1
aI-1
aI-1
aI-1
aI-1
aI-1
aI-1
aI-1
aI-1
aI-1
aI-1
aI-1
aI-1
aI-1
aI-1
aI-1
aI-1
aI-1
aI-1
aI-1
aI-1
aI-1
aI-1
aI-1
aI-1
aI-1
aI-1
aI-1
aI-1
aI-1
aI-1
aI-1
aI-1
aI-1
aI-1
aI-1
aI-1
aI-1
aa(lp23
I-1
aI-1
aI-1
aI-1
aI-1
aI-1
aI-1
aI-1
aI-1
aI-1
aI-1
aI-1
aI-1
aI-1
aI-1
aI-1
aI-1
aI-1
aI-1
aI-1
aI-1
aI-1
aI-1
aI-1
aI-1
aI-1
aI-1
aI-1
aI-1
aI-1
aI-1
aI-1
aI-1
aI-1
aI-1
aI-1
aI-1
aI-1
aI-1
aI-1
aI-1
aI-1
aI-1
aI-1
aI-1
aI-1
aI-1
aI-1
aI-1
aI-1
aI-1
aI-1
aI-1
aI-1
aI-1
aI-1
aI-1
aI-1
aI-1
aI-1
aI-1
aI-1
aI-1
aI-1
aI-1
aI-1
aI-1
aI-1
aI-1
aI-1
aI-1
aI-1
aI-1
aI-1
aI-1
aI-1
aI-1
aI-1
aI-1
aI-1
aI-1
aI-1
aI-1
aI-1
aI-1
aI-1
aI-1
aI-1
aI-1
aI-1
aI-1
aI-1
aI-1
aI-1
aI-1
aI-1
aI-1
aI-1
aI-1
aI-1
aa(lp24
I-1
aI-1
aI-1
aI-1
aI-1
aI-1
aI-1
aI-1
aI-1
aI-1
aI-1
aI-1
aI-1
aI-1
aI-1
aI-1
aI-1
aI-1
aI-1
aI-1
aI-1
aI-1
aI-1
aI-1
aI-1
aI-1
aI-1
aI-1
aI-1
aI-1
aI-1
aI-1
aI-1
aI-1
aI-1
aI-1
aI-1
aI-1
aI-1
aI-1
aI-1
aI-1
aI-1
aI-1
aI-1
aI-1
aI-1
aI-1
aI-1
aI-1
aI-1
aI-1
aI-1
aI-1
aI-1
aI-1
aI-1
aI-1
aI-1
aI-1
aI-1
aI-1
aI-1
aI-1
aI-1
aI-1
aI-1
aI-1
aI-1
aI-1
aI-1
aI-1
aI-1
aI-1
aI-1
aI-1
aI-1
aI-1
aI-1
aI-1
aI-1
aI-1
aI-1
aI-1
aI-1
aI-1
aI-1
aI-1
aI-1
aI-1
aI-1
aI-1
aI-1
aI-1
aI-1
aI-1
aI-1
aI-1
aI-1
aI-1
aa(lp25
I-1
aI-1
aI-1
aI-1
aI-1
aI-1
aI-1
aI-1
aI-1
aI-1
aI-1
aI-1
aI-1
aI-1
aI-1
aI-1
aI-1
aI-1
aI-1
aI-1
aI-1
aI-1
aI-1
aI-1
aI-1
aI-1
aI-1
aI-1
aI-1
aI-1
aI-1
aI-1
aI-1
aI-1
aI-1
aI-1
aI-1
aI-1
aI-1
aI-1
aI-1
aI-1
aI-1
aI-1
aI-1
aI-1
aI-1
aI-1
aI-1
aI-1
aI-1
aI-1
aI-1
aI-1
aI-1
aI-1
aI-1
aI-1
aI-1
aI-1
aI-1
aI-1
aI-1
aI-1
aI-1
aI-1
aI-1
aI-1
aI-1
aI-1
aI-1
aI-1
aI-1
aI-1
aI-1
aI-1
aI-1
aI-1
aI-1
aI-1
aI-1
aI-1
aI-1
aI-1
aI-1
aI-1
aI-1
aI-1
aI-1
aI-1
aI-1
aI-1
aI-1
aI-1
aI-1
aI-1
aI-1
aI-1
aI-1
aI-1
aa(lp26
I-1
aI-1
aI-1
aI-1
aI-1
aI-1
aI-1
aI-1
aI-1
aI-1
aI-1
aI-1
aI-1
aI-1
aI-1
aI-1
aI-1
aI-1
aI-1
aI-1
aI-1
aI-1
aI-1
aI-1
aI-1
aI-1
aI-1
aI-1
aI-1
aI-1
aI-1
aI-1
aI-1
aI-1
aI-1
aI-1
aI-1
aI-1
aI-1
aI-1
aI-1
aI-1
aI-1
aI-1
aI-1
aI-1
aI-1
aI-1
aI-1
aI-1
aI-1
aI-1
aI-1
aI-1
aI-1
aI-1
aI-1
aI-1
aI-1
aI-1
aI-1
aI-1
aI-1
aI-1
aI-1
aI-1
aI-1
aI-1
aI-1
aI-1
aI-1
aI-1
aI-1
aI-1
aI-1
aI-1
aI-1
aI-1
aI-1
aI-1
aI-1
aI-1
aI-1
aI-1
aI-1
aI-1
aI-1
aI-1
aI-1
aI-1
aI-1
aI-1
aI-1
aI-1
aI-1
aI-1
aI-1
aI-1
aI-1
aI-1
aa(lp27
I-1
aI-1
aI-1
aI-1
aI-1
aI-1
aI-1
aI-1
aI-1
aI-1
aI-1
aI-1
aI-1
aI-1
aI-1
aI-1
aI-1
aI-1
aI-1
aI-1
aI-1
aI-1
aI-1
aI-1
aI-1
aI-1
aI-1
aI-1
aI-1
aI-1
aI-1
aI-1
aI-1
aI-1
aI-1
aI-1
aI-1
aI-1
aI-1
aI-1
aI-1
aI-1
aI-1
aI-1
aI-1
aI-1
aI-1
aI-1
aI-1
aI-1
aI-1
aI-1
aI-1
aI-1
aI-1
aI-1
aI-1
aI-1
aI-1
aI-1
aI-1
aI-1
aI-1
aI-1
aI-1
aI-1
aI-1
aI-1
aI-1
aI-1
aI-1
aI-1
aI-1
aI-1
aI-1
aI-1
aI-1
aI-1
aI-1
aI-1
aI-1
aI-1
aI-1
aI-1
aI-1
aI-1
aI-1
aI-1
aI-1
aI-1
aI-1
aI-1
aI-1
aI-1
aI-1
aI-1
aI-1
aI-1
aI-1
aI-1
aa(lp28
I-1
aI-1
aI-1
aI-1
aI-1
aI-1
aI-1
aI-1
aI-1
aI-1
aI-1
aI-1
aI-1
aI-1
aI-1
aI-1
aI-1
aI-1
aI-1
aI-1
aI-1
aI-1
aI-1
aI-1
aI-1
aI-1
aI-1
aI-1
aI-1
aI-1
aI-1
aI-1
aI-1
aI-1
aI-1
aI-1
aI-1
aI-1
aI-1
aI-1
aI-1
aI-1
aI-1
aI-1
aI-1
aI-1
aI-1
aI-1
aI-1
aI-1
aI-1
aI-1
aI-1
aI-1
aI-1
aI-1
aI-1
aI-1
aI-1
aI-1
aI-1
aI-1
aI-1
aI-1
aI-1
aI-1
aI-1
aI-1
aI-1
aI-1
aI-1
aI-1
aI-1
aI-1
aI-1
aI-1
aI-1
aI-1
aI-1
aI-1
aI-1
aI-1
aI-1
aI-1
aI-1
aI-1
aI-1
aI-1
aI-1
aI-1
aI-1
aI-1
aI-1
aI-1
aI-1
aI-1
aI-1
aI-1
aI-1
aI-1
aa(lp29
I-1
aI-1
aI-1
aI-1
aI-1
aI-1
aI-1
aI-1
aI-1
aI-1
aI-1
aI-1
aI-1
aI-1
aI-1
aI-1
aI-1
aI-1
aI-1
aI-1
aI-1
aI-1
aI-1
aI-1
aI-1
aI-1
aI-1
aI-1
aI-1
aI-1
aI-1
aI-1
aI-1
aI-1
aI-1
aI-1
aI-1
aI-1
aI-1
aI-1
aI-1
aI-1
aI-1
aI-1
aI-1
aI-1
aI-1
aI-1
aI-1
aI-1
aI-1
aI-1
aI-1
aI-1
aI-1
aI-1
aI-1
aI-1
aI-1
aI-1
aI-1
aI-1
aI-1
aI-1
aI-1
aI-1
aI-1
aI-1
aI-1
aI-1
aI-1
aI-1
aI-1
aI-1
aI-1
aI-1
aI-1
aI-1
aI-1
aI-1
aI-1
aI-1
aI-1
aI-1
aI-1
aI-1
aI-1
aI-1
aI-1
aI-1
aI-1
aI-1
aI-1
aI-1
aI-1
aI-1
aI-1
aI-1
aI-1
aI-1
aa(lp30
I-1
aI-1
aI-1
aI-1
aI-1
aI-1
aI-1
aI-1
aI-1
aI-1
aI-1
aI-1
aI-1
aI-1
aI-1
aI-1
aI-1
aI-1
aI-1
aI-1
aI-1
aI-1
aI-1
aI-1
aI-1
aI-1
aI-1
aI-1
aI-1
aI-1
aI-1
aI-1
aI-1
aI-1
aI-1
aI-1
aI-1
aI-1
aI-1
aI-1
aI-1
aI-1
aI-1
aI-1
aI-1
aI-1
aI-1
aI-1
aI-1
aI-1
aI-1
aI-1
aI-1
aI-1
aI-1
aI-1
aI-1
aI-1
aI-1
aI-1
aI-1
aI-1
aI-1
aI-1
aI-1
aI-1
aI-1
aI-1
aI-1
aI-1
aI-1
aI-1
aI-1
aI-1
aI-1
aI-1
aI-1
aI-1
aI-1
aI-1
aI-1
aI-1
aI-1
aI-1
aI-1
aI-1
aI-1
aI-1
aI-1
aI-1
aI-1
aI-1
aI-1
aI-1
aI-1
aI-1
aI-1
aI-1
aI-1
aI-1
aa(lp31
I-1
aI-1
aI-1
aI-1
aI-1
aI-1
aI-1
aI-1
aI-1
aI-1
aI-1
aI-1
aI-1
aI-1
aI-1
aI-1
aI-1
aI-1
aI-1
aI-1
aI-1
aI-1
aI-1
aI-1
aI-1
aI-1
aI-1
aI-1
aI-1
aI-1
aI-1
aI-1
aI-1
aI-1
aI-1
aI-1
aI-1
aI-1
aI-1
aI-1
aI-1
aI-1
aI-1
aI-1
aI-1
aI-1
aI-1
aI-1
aI-1
aI-1
aI-1
aI-1
aI-1
aI-1
aI-1
aI-1
aI-1
aI-1
aI-1
aI-1
aI-1
aI-1
aI-1
aI-1
aI-1
aI-1
aI-1
aI-1
aI-1
aI-1
aI-1
aI-1
aI-1
aI-1
aI-1
aI-1
aI-1
aI-1
aI-1
aI-1
aI-1
aI-1
aI-1
aI-1
aI-1
aI-1
aI-1
aI-1
aI-1
aI-1
aI-1
aI-1
aI-1
aI-1
aI-1
aI-1
aI-1
aI-1
aI-1
aI-1
aa(lp32
I-1
aI-1
aI-1
aI-1
aI-1
aI-1
aI-1
aI-1
aI-1
aI-1
aI-1
aI-1
aI-1
aI-1
aI-1
aI-1
aI-1
aI-1
aI-1
aI-1
aI-1
aI-1
aI-1
aI-1
aI-1
aI-1
aI-1
aI-1
aI-1
aI-1
aI-1
aI-1
aI-1
aI-1
aI-1
aI-1
aI-1
aI-1
aI-1
aI-1
aI-1
aI-1
aI-1
aI-1
aI-1
aI-1
aI-1
aI-1
aI-1
aI-1
aI-1
aI-1
aI-1
aI-1
aI-1
aI-1
aI-1
aI-1
aI-1
aI-1
aI-1
aI-1
aI-1
aI-1
aI-1
aI-1
aI-1
aI-1
aI-1
aI-1
aI-1
aI-1
aI-1
aI-1
aI-1
aI-1
aI-1
aI-1
aI-1
aI-1
aI-1
aI-1
aI-1
aI-1
aI-1
aI-1
aI-1
aI-1
aI-1
aI-1
aI-1
aI-1
aI-1
aI-1
aI-1
aI-1
aI-1
aI-1
aI-1
aI-1
aa(lp33
I-1
aI-1
aI-1
aI-1
aI-1
aI-1
aI-1
aI-1
aI-1
aI-1
aI-1
aI-1
aI-1
aI-1
aI-1
aI-1
aI-1
aI-1
aI-1
aI-1
aI-1
aI-1
aI-1
aI-1
aI-1
aI-1
aI-1
aI-1
aI-1
aI-1
aI-1
aI-1
aI-1
aI-1
aI-1
aI-1
aI-1
aI-1
aI-1
aI-1
aI-1
aI-1
aI-1
aI-1
aI-1
aI-1
aI-1
aI-1
aI-1
aI-1
aI-1
aI-1
aI-1
aI-1
aI-1
aI-1
aI-1
aI-1
aI-1
aI-1
aI-1
aI-1
aI-1
aI-1
aI-1
aI-1
aI-1
aI-1
aI-1
aI-1
aI-1
aI-1
aI-1
aI-1
aI-1
aI-1
aI-1
aI-1
aI-1
aI-1
aI-1
aI-1
aI-1
aI-1
aI-1
aI-1
aI-1
aI-1
aI-1
aI-1
aI-1
aI-1
aI-1
aI-1
aI-1
aI-1
aI-1
aI-1
aI-1
aI-1
aa(lp34
I-1
aI-1
aI-1
aI-1
aI-1
aI-1
aI-1
aI-1
aI-1
aI-1
aI-1
aI-1
aI-1
aI-1
aI-1
aI-1
aI-1
aI-1
aI-1
aI-1
aI-1
aI-1
aI-1
aI-1
aI-1
aI-1
aI-1
aI-1
aI-1
aI-1
aI-1
aI-1
aI-1
aI-1
aI-1
aI-1
aI-1
aI-1
aI-1
aI-1
aI-1
aI-1
aI-1
aI-1
aI-1
aI-1
aI-1
aI-1
aI-1
aI-1
aI-1
aI-1
aI-1
aI-1
aI-1
aI-1
aI-1
aI-1
aI-1
aI-1
aI-1
aI-1
aI-1
aI-1
aI-1
aI-1
aI-1
aI-1
aI-1
aI-1
aI-1
aI-1
aI-1
aI-1
aI-1
aI-1
aI-1
aI-1
aI-1
aI-1
aI-1
aI-1
aI-1
aI-1
aI-1
aI-1
aI-1
aI-1
aI-1
aI-1
aI-1
aI-1
aI-1
aI-1
aI-1
aI-1
aI-1
aI-1
aI-1
aI-1
aa(lp35
I-1
aI-1
aI-1
aI-1
aI-1
aI-1
aI-1
aI-1
aI-1
aI-1
aI-1
aI-1
aI-1
aI-1
aI-1
aI-1
aI-1
aI-1
aI-1
aI-1
aI-1
aI-1
aI-1
aI-1
aI-1
aI-1
aI-1
aI-1
aI-1
aI-1
aI-1
aI-1
aI-1
aI-1
aI-1
aI-1
aI-1
aI-1
aI-1
aI-1
aI-1
aI-1
aI-1
aI-1
aI-1
aI-1
aI-1
aI-1
aI-1
aI-1
aI-1
aI-1
aI-1
aI-1
aI-1
aI-1
aI-1
aI-1
aI-1
aI-1
aI-1
aI-1
aI-1
aI-1
aI-1
aI-1
aI-1
aI-1
aI-1
aI-1
aI-1
aI-1
aI-1
aI-1
aI-1
aI-1
aI-1
aI-1
aI-1
aI-1
aI-1
aI-1
aI-1
aI-1
aI-1
aI-1
aI-1
aI-1
aI-1
aI-1
aI-1
aI-1
aI-1
aI-1
aI-1
aI-1
aI-1
aI-1
aI-1
aI-1
aa(lp36
I-1
aI-1
aI-1
aI-1
aI-1
aI-1
aI-1
aI-1
aI-1
aI-1
aI-1
aI-1
aI-1
aI-1
aI-1
aI-1
aI-1
aI-1
aI-1
aI-1
aI-1
aI-1
aI-1
aI-1
aI-1
aI-1
aI-1
aI-1
aI-1
aI-1
aI-1
aI-1
aI-1
aI-1
aI-1
aI-1
aI-1
aI-1
aI-1
aI-1
aI-1
aI-1
aI-1
aI-1
aI-1
aI-1
aI-1
aI-1
aI-1
aI-1
aI-1
aI-1
aI-1
aI-1
aI-1
aI-1
aI-1
aI-1
aI-1
aI-1
aI-1
aI-1
aI-1
aI-1
aI-1
aI-1
aI-1
aI-1
aI-1
aI-1
aI-1
aI-1
aI-1
aI-1
aI-1
aI-1
aI-1
aI-1
aI-1
aI-1
aI-1
aI-1
aI-1
aI-1
aI-1
aI-1
aI-1
aI-1
aI-1
aI-1
aI-1
aI-1
aI-1
aI-1
aI-1
aI-1
aI-1
aI-1
aI-1
aI-1
aa(lp37
I-1
aI-1
aI-1
aI-1
aI-1
aI-1
aI-1
aI-1
aI-1
aI-1
aI-1
aI-1
aI-1
aI-1
aI-1
aI-1
aI-1
aI-1
aI-1
aI-1
aI-1
aI-1
aI-1
aI-1
aI-1
aI-1
aI-1
aI-1
aI-1
aI-1
aI-1
aI-1
aI-1
aI-1
aI-1
aI-1
aI-1
aI-1
aI-1
aI-1
aI-1
aI-1
aI-1
aI-1
aI-1
aI-1
aI-1
aI-1
aI-1
aI-1
aI-1
aI-1
aI-1
aI-1
aI-1
aI-1
aI-1
aI-1
aI-1
aI-1
aI-1
aI-1
aI-1
aI-1
aI-1
aI-1
aI-1
aI-1
aI-1
aI-1
aI-1
aI-1
aI-1
aI-1
aI-1
aI-1
aI-1
aI-1
aI-1
aI-1
aI-1
aI-1
aI-1
aI-1
aI-1
aI-1
aI-1
aI-1
aI-1
aI-1
aI-1
aI-1
aI-1
aI-1
aI-1
aI-1
aI-1
aI-1
aI-1
aI-1
aa(lp38
I-1
aI-1
aI-1
aI-1
aI-1
aI-1
aI-1
aI-1
aI-1
aI-1
aI-1
aI-1
aI-1
aI-1
aI-1
aI-1
aI-1
aI-1
aI-1
aI-1
aI-1
aI-1
aI-1
aI-1
aI-1
aI-1
aI-1
aI-1
aI-1
aI-1
aI-1
aI-1
aI-1
aI-1
aI-1
aI-1
aI-1
aI-1
aI-1
aI-1
aI-1
aI-1
aI-1
aI-1
aI-1
aI-1
aI-1
aI-1
aI-1
aI-1
aI-1
aI-1
aI-1
aI-1
aI-1
aI-1
aI-1
aI-1
aI-1
aI-1
aI-1
aI-1
aI-1
aI-1
aI-1
aI-1
aI-1
aI-1
aI-1
aI-1
aI-1
aI-1
aI-1
aI-1
aI-1
aI-1
aI-1
aI-1
aI-1
aI-1
aI-1
aI-1
aI-1
aI-1
aI-1
aI-1
aI-1
aI-1
aI-1
aI-1
aI-1
aI-1
aI-1
aI-1
aI-1
aI-1
aI-1
aI-1
aI-1
aI-1
aa(lp39
I-1
aI-1
aI-1
aI-1
aI-1
aI-1
aI-1
aI-1
aI-1
aI-1
aI-1
aI-1
aI-1
aI-1
aI-1
aI-1
aI-1
aI-1
aI-1
aI-1
aI-1
aI-1
aI-1
aI-1
aI-1
aI-1
aI-1
aI-1
aI-1
aI-1
aI-1
aI-1
aI-1
aI-1
aI-1
aI-1
aI-1
aI-1
aI-1
aI-1
aI-1
aI-1
aI-1
aI-1
aI-1
aI-1
aI-1
aI-1
aI-1
aI-1
aI-1
aI-1
aI-1
aI-1
aI-1
aI-1
aI-1
aI-1
aI-1
aI-1
aI-1
aI-1
aI-1
aI-1
aI-1
aI-1
aI-1
aI-1
aI-1
aI-1
aI-1
aI-1
aI-1
aI-1
aI-1
aI-1
aI-1
aI-1
aI-1
aI-1
aI-1
aI-1
aI-1
aI-1
aI-1
aI-1
aI-1
aI-1
aI-1
aI-1
aI-1
aI-1
aI-1
aI-1
aI-1
aI-1
aI-1
aI-1
aI-1
aI-1
aa(lp40
I-1
aI-1
aI-1
aI-1
aI-1
aI-1
aI-1
aI-1
aI-1
aI-1
aI-1
aI-1
aI-1
aI-1
aI-1
aI-1
aI-1
aI-1
aI-1
aI-1
aI-1
aI-1
aI-1
aI-1
aI-1
aI-1
aI-1
aI-1
aI-1
aI-1
aI-1
aI-1
aI-1
aI-1
aI-1
aI-1
aI-1
aI-1
aI-1
aI-1
aI-1
aI-1
aI-1
aI-1
aI-1
aI-1
aI-1
aI-1
aI-1
aI-1
aI-1
aI-1
aI-1
aI-1
aI-1
aI-1
aI-1
aI-1
aI-1
aI-1
aI-1
aI-1
aI-1
aI-1
aI-1
aI-1
aI-1
aI-1
aI-1
aI-1
aI-1
aI-1
aI-1
aI-1
aI-1
aI-1
aI-1
aI-1
aI-1
aI-1
aI-1
aI-1
aI-1
aI-1
aI-1
aI-1
aI-1
aI-1
aI-1
aI-1
aI-1
aI-1
aI-1
aI-1
aI-1
aI-1
aI-1
aI-1
aI-1
aI-1
aa(lp41
I-1
aI-1
aI-1
aI-1
aI-1
aI-1
aI-1
aI-1
aI-1
aI-1
aI-1
aI-1
aI-1
aI-1
aI-1
aI-1
aI-1
aI-1
aI-1
aI-1
aI-1
aI-1
aI-1
aI-1
aI-1
aI-1
aI-1
aI-1
aI-1
aI-1
aI-1
aI-1
aI-1
aI-1
aI-1
aI-1
aI-1
aI-1
aI-1
aI-1
aI-1
aI-1
aI-1
aI-1
aI-1
aI-1
aI-1
aI-1
aI-1
aI-1
aI-1
aI-1
aI-1
aI-1
aI-1
aI-1
aI-1
aI-1
aI-1
aI-1
aI-1
aI-1
aI-1
aI-1
aI-1
aI-1
aI-1
aI-1
aI-1
aI-1
aI-1
aI-1
aI-1
aI-1
aI-1
aI-1
aI-1
aI-1
aI-1
aI-1
aI-1
aI-1
aI-1
aI-1
aI-1
aI-1
aI-1
aI-1
aI-1
aI-1
aI-1
aI-1
aI-1
aI-1
aI-1
aI-1
aI-1
aI-1
aI-1
aI-1
aa(lp42
I-1
aI-1
aI-1
aI-1
aI-1
aI-1
aI-1
aI-1
aI-1
aI-1
aI-1
aI-1
aI-1
aI-1
aI-1
aI-1
aI-1
aI-1
aI-1
aI-1
aI-1
aI-1
aI-1
aI-1
aI-1
aI-1
aI-1
aI-1
aI-1
aI-1
aI-1
aI-1
aI-1
aI-1
aI-1
aI-1
aI-1
aI-1
aI-1
aI-1
aI-1
aI-1
aI-1
aI-1
aI-1
aI-1
aI-1
aI-1
aI-1
aI-1
aI-1
aI-1
aI-1
aI-1
aI-1
aI-1
aI-1
aI-1
aI-1
aI-1
aI-1
aI-1
aI-1
aI-1
aI-1
aI-1
aI-1
aI-1
aI-1
aI-1
aI-1
aI-1
aI-1
aI-1
aI-1
aI-1
aI-1
aI-1
aI-1
aI-1
aI-1
aI-1
aI-1
aI-1
aI-1
aI-1
aI-1
aI-1
aI-1
aI-1
aI-1
aI-1
aI-1
aI-1
aI-1
aI-1
aI-1
aI-1
aI-1
aI-1
aa(lp43
I-1
aI-1
aI-1
aI-1
aI-1
aI-1
aI-1
aI-1
aI-1
aI-1
aI-1
aI-1
aI-1
aI-1
aI-1
aI-1
aI-1
aI-1
aI-1
aI-1
aI-1
aI-1
aI-1
aI-1
aI-1
aI-1
aI-1
aI-1
aI-1
aI-1
aI-1
aI-1
aI-1
aI-1
aI-1
aI-1
aI-1
aI-1
aI-1
aI-1
aI-1
aI-1
aI-1
aI-1
aI-1
aI-1
aI-1
aI-1
aI-1
aI-1
aI-1
aI-1
aI-1
aI-1
aI-1
aI-1
aI-1
aI-1
aI-1
aI-1
aI-1
aI-1
aI-1
aI-1
aI-1
aI-1
aI-1
aI-1
aI-1
aI-1
aI-1
aI-1
aI-1
aI-1
aI-1
aI-1
aI-1
aI-1
aI-1
aI-1
aI-1
aI-1
aI-1
aI-1
aI-1
aI-1
aI-1
aI-1
aI-1
aI-1
aI-1
aI-1
aI-1
aI-1
aI-1
aI-1
aI-1
aI-1
aI-1
aI-1
aa(lp44
I-1
aI-1
aI-1
aI-1
aI-1
aI-1
aI-1
aI-1
aI-1
aI-1
aI-1
aI-1
aI-1
aI-1
aI-1
aI-1
aI-1
aI-1
aI-1
aI-1
aI-1
aI-1
aI-1
aI-1
aI-1
aI-1
aI-1
aI-1
aI-1
aI-1
aI-1
aI-1
aI-1
aI-1
aI-1
aI-1
aI-1
aI-1
aI-1
aI-1
aI-1
aI-1
aI-1
aI-1
aI-1
aI-1
aI-1
aI-1
aI-1
aI-1
aI-1
aI-1
aI-1
aI-1
aI-1
aI-1
aI-1
aI-1
aI-1
aI-1
aI-1
aI-1
aI-1
aI-1
aI-1
aI-1
aI-1
aI-1
aI-1
aI-1
aI-1
aI-1
aI-1
aI-1
aI-1
aI-1
aI-1
aI-1
aI-1
aI-1
aI-1
aI-1
aI-1
aI-1
aI-1
aI-1
aI-1
aI-1
aI-1
aI-1
aI-1
aI-1
aI-1
aI-1
aI-1
aI-1
aI-1
aI-1
aI-1
aI-1
aa(lp45
I-1
aI-1
aI-1
aI-1
aI-1
aI-1
aI-1
aI-1
aI-1
aI-1
aI-1
aI-1
aI-1
aI-1
aI-1
aI-1
aI-1
aI-1
aI-1
aI-1
aI-1
aI-1
aI-1
aI-1
aI-1
aI-1
aI-1
aI-1
aI-1
aI-1
aI-1
aI-1
aI-1
aI-1
aI-1
aI-1
aI-1
aI-1
aI-1
aI-1
aI-1
aI-1
aI-1
aI-1
aI-1
aI-1
aI-1
aI-1
aI-1
aI-1
aI-1
aI-1
aI-1
aI-1
aI-1
aI-1
aI-1
aI-1
aI-1
aI-1
aI-1
aI-1
aI-1
aI-1
aI-1
aI-1
aI-1
aI-1
aI-1
aI-1
aI-1
aI-1
aI-1
aI-1
aI-1
aI-1
aI-1
aI-1
aI-1
aI-1
aI-1
aI-1
aI-1
aI-1
aI-1
aI-1
aI-1
aI-1
aI-1
aI-1
aI-1
aI-1
aI-1
aI-1
aI-1
aI-1
aI-1
aI-1
aI-1
aI-1
aa(lp46
I-1
aI-1
aI-1
aI-1
aI-1
aI-1
aI-1
aI-1
aI-1
aI-1
aI-1
aI-1
aI-1
aI-1
aI-1
aI-1
aI-1
aI-1
aI-1
aI-1
aI-1
aI-1
aI-1
aI-1
aI-1
aI-1
aI-1
aI-1
aI-1
aI-1
aI-1
aI-1
aI-1
aI-1
aI-1
aI-1
aI-1
aI-1
aI-1
aI-1
aI-1
aI-1
aI-1
aI-1
aI-1
aI-1
aI-1
aI-1
aI-1
aI-1
aI-1
aI-1
aI-1
aI-1
aI-1
aI-1
aI-1
aI-1
aI-1
aI-1
aI-1
aI-1
aI-1
aI-1
aI-1
aI-1
aI-1
aI-1
aI-1
aI-1
aI-1
aI-1
aI-1
aI-1
aI-1
aI-1
aI-1
aI-1
aI-1
aI-1
aI-1
aI-1
aI-1
aI-1
aI-1
aI-1
aI-1
aI-1
aI-1
aI-1
aI-1
aI-1
aI-1
aI-1
aI-1
aI-1
aI-1
aI-1
aI-1
aI-1
aa(lp47
I-1
aI-1
aI-1
aI-1
aI-1
aI-1
aI-1
aI-1
aI-1
aI-1
aI-1
aI-1
aI-1
aI-1
aI-1
aI-1
aI-1
aI-1
aI-1
aI-1
aI-1
aI-1
aI-1
aI-1
aI-1
aI-1
aI-1
aI-1
aI-1
aI-1
aI-1
aI-1
aI-1
aI-1
aI-1
aI-1
aI-1
aI-1
aI-1
aI-1
aI-1
aI-1
aI-1
aI-1
aI-1
aI-1
aI-1
aI-1
aI-1
aI-1
aI-1
aI-1
aI-1
aI-1
aI-1
aI-1
aI-1
aI-1
aI-1
aI-1
aI-1
aI-1
aI-1
aI-1
aI-1
aI-1
aI-1
aI-1
aI-1
aI-1
aI-1
aI-1
aI-1
aI-1
aI-1
aI-1
aI-1
aI-1
aI-1
aI-1
aI-1
aI-1
aI-1
aI-1
aI-1
aI-1
aI-1
aI-1
aI-1
aI-1
aI-1
aI-1
aI-1
aI-1
aI-1
aI-1
aI-1
aI-1
aI-1
aI-1
aa(lp48
I-1
aI-1
aI-1
aI-1
aI-1
aI-1
aI-1
aI-1
aI-1
aI-1
aI-1
aI-1
aI-1
aI-1
aI-1
aI-1
aI-1
aI-1
aI-1
aI-1
aI-1
aI-1
aI-1
aI-1
aI-1
aI-1
aI-1
aI-1
aI-1
aI-1
aI-1
aI-1
aI-1
aI-1
aI-1
aI-1
aI-1
aI-1
aI-1
aI-1
aI-1
aI-1
aI-1
aI-1
aI-1
aI-1
aI-1
aI-1
aI-1
aI-1
aI-1
aI-1
aI-1
aI-1
aI-1
aI-1
aI-1
aI-1
aI-1
aI-1
aI-1
aI-1
aI-1
aI-1
aI-1
aI-1
aI-1
aI-1
aI-1
aI-1
aI-1
aI-1
aI-1
aI-1
aI-1
aI-1
aI-1
aI-1
aI-1
aI-1
aI-1
aI-1
aI-1
aI-1
aI-1
aI-1
aI-1
aI-1
aI-1
aI-1
aI-1
aI-1
aI-1
aI-1
aI-1
aI-1
aI-1
aI-1
aI-1
aI-1
aa(lp49
I-1
aI-1
aI-1
aI-1
aI-1
aI-1
aI-1
aI-1
aI-1
aI-1
aI-1
aI-1
aI-1
aI-1
aI-1
aI-1
aI-1
aI-1
aI-1
aI-1
aI-1
aI-1
aI-1
aI-1
aI-1
aI-1
aI-1
aI-1
aI-1
aI-1
aI-1
aI-1
aI-1
aI-1
aI-1
aI-1
aI-1
aI-1
aI-1
aI-1
aI-1
aI-1
aI-1
aI-1
aI-1
aI-1
aI-1
aI-1
aI-1
aI-1
aI-1
aI-1
aI-1
aI-1
aI-1
aI-1
aI-1
aI-1
aI-1
aI-1
aI-1
aI-1
aI-1
aI-1
aI-1
aI-1
aI-1
aI-1
aI-1
aI-1
aI-1
aI-1
aI-1
aI-1
aI-1
aI-1
aI-1
aI-1
aI-1
aI-1
aI-1
aI-1
aI-1
aI-1
aI-1
aI-1
aI-1
aI-1
aI-1
aI-1
aI-1
aI-1
aI-1
aI-1
aI-1
aI-1
aI-1
aI-1
aI-1
aI-1
aa(lp50
I-1
aI-1
aI-1
aI-1
aI-1
aI-1
aI-1
aI-1
aI-1
aI-1
aI-1
aI-1
aI-1
aI-1
aI-1
aI-1
aI-1
aI-1
aI-1
aI-1
aI-1
aI-1
aI-1
aI-1
aI-1
aI-1
aI-1
aI-1
aI-1
aI-1
aI-1
aI-1
aI-1
aI-1
aI-1
aI-1
aI-1
aI-1
aI-1
aI-1
aI-1
aI-1
aI-1
aI-1
aI-1
aI-1
aI-1
aI-1
aI-1
aI-1
aI-1
aI-1
aI-1
aI-1
aI-1
aI-1
aI-1
aI-1
aI-1
aI-1
aI-1
aI-1
aI-1
aI-1
aI-1
aI-1
aI-1
aI-1
aI-1
aI-1
aI-1
aI-1
aI-1
aI-1
aI-1
aI-1
aI-1
aI-1
aI-1
aI-1
aI-1
aI-1
aI-1
aI-1
aI-1
aI-1
aI-1
aI-1
aI-1
aI-1
aI-1
aI-1
aI-1
aI-1
aI-1
aI-1
aI-1
aI-1
aI-1
aI-1
aa(lp51
I-1
aI-1
aI-1
aI-1
aI-1
aI-1
aI-1
aI-1
aI-1
aI-1
aI-1
aI-1
aI-1
aI-1
aI-1
aI-1
aI-1
aI-1
aI-1
aI-1
aI-1
aI-1
aI-1
aI-1
aI-1
aI-1
aI-1
aI-1
aI-1
aI-1
aI-1
aI-1
aI-1
aI-1
aI-1
aI-1
aI-1
aI-1
aI-1
aI-1
aI-1
aI-1
aI-1
aI-1
aI-1
aI-1
aI-1
aI-1
aI-1
aI-1
aI-1
aI-1
aI-1
aI-1
aI-1
aI-1
aI-1
aI-1
aI-1
aI-1
aI-1
aI-1
aI-1
aI-1
aI-1
aI-1
aI-1
aI-1
aI-1
aI-1
aI-1
aI-1
aI-1
aI-1
aI-1
aI-1
aI-1
aI-1
aI-1
aI-1
aI-1
aI-1
aI-1
aI-1
aI-1
aI-1
aI-1
aI-1
aI-1
aI-1
aI-1
aI-1
aI-1
aI-1
aI-1
aI-1
aI-1
aI-1
aI-1
aI-1
aa(lp52
I-1
aI-1
aI-1
aI-1
aI-1
aI-1
aI-1
aI-1
aI-1
aI-1
aI-1
aI-1
aI-1
aI-1
aI-1
aI-1
aI-1
aI-1
aI-1
aI-1
aI-1
aI-1
aI-1
aI-1
aI-1
aI-1
aI-1
aI-1
aI-1
aI-1
aI-1
aI-1
aI-1
aI-1
aI-1
aI-1
aI-1
aI-1
aI-1
aI-1
aI-1
aI-1
aI-1
aI-1
aI-1
aI-1
aI-1
aI-1
aI-1
aI-1
aI-1
aI-1
aI-1
aI-1
aI-1
aI-1
aI-1
aI-1
aI-1
aI-1
aI-1
aI-1
aI-1
aI-1
aI-1
aI-1
aI-1
aI-1
aI-1
aI-1
aI-1
aI-1
aI-1
aI-1
aI-1
aI-1
aI-1
aI-1
aI-1
aI-1
aI-1
aI-1
aI-1
aI-1
aI-1
aI-1
aI-1
aI-1
aI-1
aI-1
aI-1
aI-1
aI-1
aI-1
aI-1
aI-1
aI-1
aI-1
aI-1
aI-1
aa(lp53
I-1
aI-1
aI-1
aI-1
aI-1
aI-1
aI-1
aI-1
aI-1
aI-1
aI-1
aI-1
aI-1
aI-1
aI-1
aI-1
aI-1
aI-1
aI-1
aI-1
aI-1
aI-1
aI-1
aI-1
aI-1
aI-1
aI-1
aI-1
aI-1
aI-1
aI-1
aI-1
aI-1
aI-1
aI-1
aI-1
aI-1
aI-1
aI-1
aI-1
aI-1
aI-1
aI-1
aI-1
aI-1
aI-1
aI-1
aI-1
aI-1
aI-1
aI-1
aI-1
aI-1
aI-1
aI-1
aI-1
aI-1
aI-1
aI-1
aI-1
aI-1
aI-1
aI-1
aI-1
aI-1
aI-1
aI-1
aI-1
aI-1
aI-1
aI-1
aI-1
aI-1
aI-1
aI-1
aI-1
aI-1
aI-1
aI-1
aI-1
aI-1
aI-1
aI-1
aI-1
aI-1
aI-1
aI-1
aI-1
aI-1
aI-1
aI-1
aI-1
aI-1
aI-1
aI-1
aI-1
aI-1
aI-1
aI-1
aI-1
aa(lp54
I-1
aI-1
aI-1
aI-1
aI-1
aI-1
aI-1
aI-1
aI-1
aI-1
aI-1
aI-1
aI-1
aI-1
aI-1
aI-1
aI-1
aI-1
aI-1
aI-1
aI-1
aI-1
aI-1
aI-1
aI-1
aI-1
aI-1
aI-1
aI-1
aI-1
aI-1
aI-1
aI-1
aI-1
aI-1
aI-1
aI-1
aI-1
aI-1
aI-1
aI-1
aI-1
aI-1
aI-1
aI-1
aI-1
aI-1
aI-1
aI-1
aI-1
aI-1
aI-1
aI-1
aI-1
aI-1
aI-1
aI-1
aI-1
aI-1
aI-1
aI-1
aI-1
aI-1
aI-1
aI-1
aI-1
aI-1
aI-1
aI-1
aI-1
aI-1
aI-1
aI-1
aI-1
aI-1
aI-1
aI-1
aI-1
aI-1
aI-1
aI-1
aI-1
aI-1
aI-1
aI-1
aI-1
aI-1
aI-1
aI-1
aI-1
aI-1
aI-1
aI-1
aI-1
aI-1
aI-1
aI-1
aI-1
aI-1
aI-1
aa(lp55
I-1
aI-1
aI-1
aI-1
aI-1
aI-1
aI-1
aI-1
aI-1
aI-1
aI-1
aI-1
aI-1
aI-1
aI-1
aI-1
aI-1
aI-1
aI-1
aI-1
aI-1
aI-1
aI-1
aI-1
aI-1
aI-1
aI-1
aI-1
aI-1
aI-1
aI-1
aI-1
aI-1
aI-1
aI-1
aI-1
aI-1
aI-1
aI-1
aI-1
aI-1
aI-1
aI-1
aI-1
aI-1
aI-1
aI-1
aI-1
aI-1
aI-1
aI-1
aI-1
aI-1
aI-1
aI-1
aI-1
aI-1
aI-1
aI-1
aI-1
aI-1
aI-1
aI-1
aI-1
aI-1
aI-1
aI-1
aI-1
aI-1
aI-1
aI-1
aI-1
aI-1
aI-1
aI-1
aI-1
aI-1
aI-1
aI-1
aI-1
aI-1
aI-1
aI-1
aI-1
aI-1
aI-1
aI-1
aI-1
aI-1
aI-1
aI-1
aI-1
aI-1
aI-1
aI-1
aI-1
aI-1
aI-1
aI-1
aI-1
aa(lp56
I-1
aI-1
aI-1
aI-1
aI-1
aI-1
aI-1
aI-1
aI-1
aI-1
aI-1
aI-1
aI-1
aI-1
aI-1
aI-1
aI-1
aI-1
aI-1
aI-1
aI-1
aI-1
aI-1
aI-1
aI-1
aI-1
aI-1
aI-1
aI-1
aI-1
aI-1
aI-1
aI-1
aI-1
aI-1
aI-1
aI-1
aI-1
aI-1
aI-1
aI-1
aI-1
aI-1
aI-1
aI-1
aI-1
aI-1
aI-1
aI-1
aI-1
aI-1
aI-1
aI-1
aI-1
aI-1
aI-1
aI-1
aI-1
aI-1
aI-1
aI-1
aI-1
aI-1
aI-1
aI-1
aI-1
aI-1
aI-1
aI-1
aI-1
aI-1
aI-1
aI-1
aI-1
aI-1
aI-1
aI-1
aI-1
aI-1
aI-1
aI-1
aI-1
aI-1
aI-1
aI-1
aI-1
aI-1
aI-1
aI-1
aI-1
aI-1
aI-1
aI-1
aI-1
aI-1
aI-1
aI-1
aI-1
aI-1
aI-1
aa(lp57
I-1
aI-1
aI-1
aI-1
aI-1
aI-1
aI-1
aI-1
aI-1
aI-1
aI-1
aI-1
aI-1
aI-1
aI-1
aI-1
aI-1
aI-1
aI-1
aI-1
aI-1
aI-1
aI-1
aI-1
aI-1
aI-1
aI-1
aI-1
aI-1
aI-1
aI-1
aI-1
aI-1
aI-1
aI-1
aI-1
aI-1
aI-1
aI-1
aI-1
aI-1
aI-1
aI-1
aI-1
aI-1
aI-1
aI-1
aI-1
aI-1
aI-1
aI-1
aI-1
aI-1
aI-1
aI-1
aI-1
aI-1
aI-1
aI-1
aI-1
aI-1
aI-1
aI-1
aI-1
aI-1
aI-1
aI-1
aI-1
aI-1
aI-1
aI-1
aI-1
aI-1
aI-1
aI-1
aI-1
aI-1
aI-1
aI-1
aI-1
aI-1
aI-1
aI-1
aI-1
aI-1
aI-1
aI-1
aI-1
aI-1
aI-1
aI-1
aI-1
aI-1
aI-1
aI-1
aI-1
aI-1
aI-1
aI-1
aI-1
aa(lp58
I-1
aI-1
aI-1
aI-1
aI-1
aI-1
aI-1
aI-1
aI-1
aI-1
aI-1
aI-1
aI-1
aI-1
aI-1
aI-1
aI-1
aI-1
aI-1
aI-1
aI-1
aI-1
aI-1
aI-1
aI-1
aI-1
aI-1
aI-1
aI-1
aI-1
aI-1
aI-1
aI-1
aI-1
aI-1
aI-1
aI-1
aI-1
aI-1
aI-1
aI-1
aI-1
aI-1
aI-1
aI-1
aI-1
aI-1
aI-1
aI-1
aI-1
aI-1
aI-1
aI-1
aI-1
aI-1
aI-1
aI-1
aI-1
aI-1
aI-1
aI-1
aI-1
aI-1
aI-1
aI-1
aI-1
aI-1
aI-1
aI-1
aI-1
aI-1
aI-1
aI-1
aI-1
aI-1
aI-1
aI-1
aI-1
aI-1
aI-1
aI-1
aI-1
aI-1
aI-1
aI-1
aI-1
aI-1
aI-1
aI-1
aI-1
aI-1
aI-1
aI-1
aI-1
aI-1
aI-1
aI-1
aI-1
aI-1
aI-1
aa(lp59
I-1
aI-1
aI-1
aI-1
aI-1
aI-1
aI-1
aI-1
aI-1
aI-1
aI-1
aI-1
aI-1
aI-1
aI-1
aI-1
aI-1
aI-1
aI-1
aI-1
aI-1
aI-1
aI-1
aI-1
aI-1
aI-1
aI-1
aI-1
aI-1
aI-1
aI-1
aI-1
aI-1
aI-1
aI-1
aI-1
aI-1
aI-1
aI-1
aI-1
aI-1
aI-1
aI-1
aI-1
aI-1
aI-1
aI-1
aI-1
aI-1
aI-1
aI-1
aI-1
aI-1
aI-1
aI-1
aI-1
aI-1
aI-1
aI-1
aI-1
aI-1
aI-1
aI-1
aI-1
aI-1
aI-1
aI-1
aI-1
aI-1
aI-1
aI-1
aI-1
aI-1
aI-1
aI-1
aI-1
aI-1
aI-1
aI-1
aI-1
aI-1
aI-1
aI-1
aI-1
aI-1
aI-1
aI-1
aI-1
aI-1
aI-1
aI-1
aI-1
aI-1
aI-1
aI-1
aI-1
aI-1
aI-1
aI-1
aI-1
aa(lp60
I-1
aI-1
aI-1
aI-1
aI-1
aI-1
aI-1
aI-1
aI-1
aI-1
aI-1
aI-1
aI-1
aI-1
aI-1
aI-1
aI-1
aI-1
aI-1
aI-1
aI-1
aI-1
aI-1
aI-1
aI-1
aI-1
aI-1
aI-1
aI-1
aI-1
aI-1
aI-1
aI-1
aI-1
aI-1
aI-1
aI-1
aI-1
aI-1
aI-1
aI-1
aI-1
aI-1
aI-1
aI-1
aI-1
aI-1
aI-1
aI-1
aI-1
aI-1
aI-1
aI-1
aI-1
aI-1
aI-1
aI-1
aI-1
aI-1
aI-1
aI-1
aI-1
aI-1
aI-1
aI-1
aI-1
aI-1
aI-1
aI-1
aI-1
aI-1
aI-1
aI-1
aI-1
aI-1
aI-1
aI-1
aI-1
aI-1
aI-1
aI-1
aI-1
aI-1
aI-1
aI-1
aI-1
aI-1
aI-1
aI-1
aI-1
aI-1
aI-1
aI-1
aI-1
aI-1
aI-1
aI-1
aI-1
aI-1
aI-1
aa(lp61
I-1
aI-1
aI-1
aI-1
aI-1
aI-1
aI-1
aI-1
aI-1
aI-1
aI-1
aI-1
aI-1
aI-1
aI-1
aI-1
aI-1
aI-1
aI-1
aI-1
aI-1
aI-1
aI-1
aI-1
aI-1
aI-1
aI-1
aI-1
aI-1
aI-1
aI-1
aI-1
aI-1
aI-1
aI-1
aI-1
aI-1
aI-1
aI-1
aI-1
aI-1
aI-1
aI-1
aI-1
aI-1
aI-1
aI-1
aI-1
aI-1
aI-1
aI-1
aI-1
aI-1
aI-1
aI-1
aI-1
aI-1
aI-1
aI-1
aI-1
aI-1
aI-1
aI-1
aI-1
aI-1
aI-1
aI-1
aI-1
aI-1
aI-1
aI-1
aI-1
aI-1
aI-1
aI-1
aI-1
aI-1
aI-1
aI-1
aI-1
aI-1
aI-1
aI-1
aI-1
aI-1
aI-1
aI-1
aI-1
aI-1
aI-1
aI-1
aI-1
aI-1
aI-1
aI-1
aI-1
aI-1
aI-1
aI-1
aI-1
aa(lp62
I-1
aI-1
aI-1
aI-1
aI-1
aI-1
aI-1
aI-1
aI-1
aI-1
aI-1
aI-1
aI-1
aI-1
aI-1
aI-1
aI-1
aI-1
aI-1
aI-1
aI-1
aI-1
aI-1
aI-1
aI-1
aI-1
aI-1
aI-1
aI-1
aI-1
aI-1
aI-1
aI-1
aI-1
aI-1
aI-1
aI-1
aI-1
aI-1
aI-1
aI-1
aI-1
aI-1
aI-1
aI-1
aI-1
aI-1
aI-1
aI-1
aI-1
aI-1
aI-1
aI-1
aI-1
aI-1
aI-1
aI-1
aI-1
aI-1
aI-1
aI-1
aI-1
aI-1
aI-1
aI-1
aI-1
aI-1
aI-1
aI-1
aI-1
aI-1
aI-1
aI-1
aI-1
aI-1
aI-1
aI-1
aI-1
aI-1
aI-1
aI-1
aI-1
aI-1
aI-1
aI-1
aI-1
aI-1
aI-1
aI-1
aI-1
aI-1
aI-1
aI-1
aI-1
aI-1
aI-1
aI-1
aI-1
aI-1
aI-1
aa(lp63
I-1
aI-1
aI-1
aI-1
aI-1
aI-1
aI-1
aI-1
aI-1
aI-1
aI-1
aI-1
aI-1
aI-1
aI-1
aI-1
aI-1
aI-1
aI-1
aI-1
aI-1
aI-1
aI-1
aI-1
aI-1
aI-1
aI-1
aI-1
aI-1
aI-1
aI-1
aI-1
aI-1
aI-1
aI-1
aI-1
aI-1
aI-1
aI-1
aI-1
aI-1
aI-1
aI-1
aI-1
aI-1
aI-1
aI-1
aI-1
aI-1
aI-1
aI-1
aI-1
aI-1
aI-1
aI-1
aI-1
aI-1
aI-1
aI-1
aI-1
aI-1
aI-1
aI-1
aI-1
aI-1
aI-1
aI-1
aI-1
aI-1
aI-1
aI-1
aI-1
aI-1
aI-1
aI-1
aI-1
aI-1
aI-1
aI-1
aI-1
aI-1
aI-1
aI-1
aI-1
aI-1
aI-1
aI-1
aI-1
aI-1
aI-1
aI-1
aI-1
aI-1
aI-1
aI-1
aI-1
aI-1
aI-1
aI-1
aI-1
aa(lp64
I-1
aI-1
aI-1
aI-1
aI-1
aI-1
aI-1
aI-1
aI-1
aI-1
aI-1
aI-1
aI-1
aI-1
aI-1
aI-1
aI-1
aI-1
aI-1
aI-1
aI-1
aI-1
aI-1
aI-1
aI-1
aI-1
aI-1
aI-1
aI-1
aI-1
aI-1
aI-1
aI-1
aI-1
aI-1
aI-1
aI-1
aI-1
aI-1
aI-1
aI-1
aI-1
aI-1
aI-1
aI-1
aI-1
aI-1
aI-1
aI-1
aI-1
aI-1
aI-1
aI-1
aI-1
aI-1
aI-1
aI-1
aI-1
aI-1
aI-1
aI-1
aI-1
aI-1
aI-1
aI-1
aI-1
aI-1
aI-1
aI-1
aI-1
aI-1
aI-1
aI-1
aI-1
aI-1
aI-1
aI-1
aI-1
aI-1
aI-1
aI-1
aI-1
aI-1
aI-1
aI-1
aI-1
aI-1
aI-1
aI-1
aI-1
aI-1
aI-1
aI-1
aI-1
aI-1
aI-1
aI-1
aI-1
aI-1
aI-1
aa(lp65
I-1
aI-1
aI-1
aI-1
aI-1
aI-1
aI-1
aI-1
aI-1
aI-1
aI-1
aI-1
aI-1
aI-1
aI-1
aI-1
aI-1
aI-1
aI-1
aI-1
aI-1
aI-1
aI-1
aI-1
aI-1
aI-1
aI-1
aI-1
aI-1
aI-1
aI-1
aI-1
aI-1
aI-1
aI-1
aI-1
aI-1
aI-1
aI-1
aI-1
aI-1
aI-1
aI-1
aI-1
aI-1
aI-1
aI-1
aI-1
aI-1
aI-1
aI-1
aI-1
aI-1
aI-1
aI-1
aI-1
aI-1
aI-1
aI-1
aI-1
aI-1
aI-1
aI-1
aI-1
aI-1
aI-1
aI-1
aI-1
aI-1
aI-1
aI-1
aI-1
aI-1
aI-1
aI-1
aI-1
aI-1
aI-1
aI-1
aI-1
aI-1
aI-1
aI-1
aI-1
aI-1
aI-1
aI-1
aI-1
aI-1
aI-1
aI-1
aI-1
aI-1
aI-1
aI-1
aI-1
aI-1
aI-1
aI-1
aI-1
aa(lp66
I-1
aI-1
aI-1
aI-1
aI-1
aI-1
aI-1
aI-1
aI-1
aI-1
aI-1
aI-1
aI-1
aI-1
aI-1
aI-1
aI-1
aI-1
aI-1
aI-1
aI-1
aI-1
aI-1
aI-1
aI-1
aI-1
aI-1
aI-1
aI-1
aI-1
aI-1
aI-1
aI-1
aI-1
aI-1
aI-1
aI-1
aI-1
aI-1
aI-1
aI-1
aI-1
aI-1
aI-1
aI-1
aI-1
aI-1
aI-1
aI-1
aI-1
aI-1
aI-1
aI-1
aI-1
aI-1
aI-1
aI-1
aI-1
aI-1
aI-1
aI-1
aI-1
aI-1
aI-1
aI-1
aI-1
aI-1
aI-1
aI-1
aI-1
aI-1
aI-1
aI-1
aI-1
aI-1
aI-1
aI-1
aI-1
aI-1
aI-1
aI-1
aI-1
aI-1
aI-1
aI-1
aI-1
aI-1
aI-1
aI-1
aI-1
aI-1
aI-1
aI-1
aI-1
aI-1
aI-1
aI-1
aI-1
aI-1
aI-1
aa(lp67
I-1
aI-1
aI-1
aI-1
aI-1
aI-1
aI-1
aI-1
aI-1
aI-1
aI-1
aI-1
aI-1
aI-1
aI-1
aI-1
aI-1
aI-1
aI-1
aI-1
aI-1
aI-1
aI-1
aI-1
aI-1
aI-1
aI-1
aI-1
aI-1
aI-1
aI-1
aI-1
aI-1
aI-1
aI-1
aI-1
aI-1
aI-1
aI-1
aI-1
aI-1
aI-1
aI-1
aI-1
aI-1
aI-1
aI-1
aI-1
aI-1
aI-1
aI-1
aI-1
aI-1
aI-1
aI-1
aI-1
aI-1
aI-1
aI-1
aI-1
aI-1
aI-1
aI-1
aI-1
aI-1
aI-1
aI-1
aI-1
aI-1
aI-1
aI-1
aI-1
aI-1
aI-1
aI-1
aI-1
aI-1
aI-1
aI-1
aI-1
aI-1
aI-1
aI-1
aI-1
aI-1
aI-1
aI-1
aI-1
aI-1
aI-1
aI-1
aI-1
aI-1
aI-1
aI-1
aI-1
aI-1
aI-1
aI-1
aI-1
aa(lp68
I-1
aI-1
aI-1
aI-1
aI-1
aI-1
aI-1
aI-1
aI-1
aI-1
aI-1
aI-1
aI-1
aI-1
aI-1
aI-1
aI-1
aI-1
aI-1
aI-1
aI-1
aI-1
aI-1
aI-1
aI-1
aI-1
aI-1
aI-1
aI-1
aI-1
aI-1
aI-1
aI-1
aI-1
aI-1
aI-1
aI-1
aI-1
aI-1
aI-1
aI-1
aI-1
aI-1
aI-1
aI-1
aI-1
aI-1
aI-1
aI-1
aI-1
aI-1
aI-1
aI-1
aI-1
aI-1
aI-1
aI-1
aI-1
aI-1
aI-1
aI-1
aI-1
aI-1
aI-1
aI-1
aI-1
aI-1
aI-1
aI-1
aI-1
aI-1
aI-1
aI-1
aI-1
aI-1
aI-1
aI-1
aI-1
aI-1
aI-1
aI-1
aI-1
aI-1
aI-1
aI-1
aI-1
aI-1
aI-1
aI-1
aI-1
aI-1
aI-1
aI-1
aI-1
aI-1
aI-1
aI-1
aI-1
aI-1
aI-1
aa(lp69
I-1
aI-1
aI-1
aI-1
aI-1
aI-1
aI-1
aI-1
aI-1
aI-1
aI-1
aI-1
aI-1
aI-1
aI-1
aI-1
aI-1
aI-1
aI-1
aI-1
aI-1
aI-1
aI-1
aI-1
aI-1
aI-1
aI-1
aI-1
aI-1
aI-1
aI-1
aI-1
aI-1
aI-1
aI-1
aI-1
aI-1
aI-1
aI-1
aI-1
aI-1
aI-1
aI-1
aI-1
aI-1
aI-1
aI-1
aI-1
aI-1
aI-1
aI-1
aI-1
aI-1
aI-1
aI-1
aI-1
aI-1
aI-1
aI-1
aI-1
aI-1
aI-1
aI-1
aI-1
aI-1
aI-1
aI-1
aI-1
aI-1
aI-1
aI-1
aI-1
aI-1
aI-1
aI-1
aI-1
aI-1
aI-1
aI-1
aI-1
aI-1
aI-1
aI-1
aI-1
aI-1
aI-1
aI-1
aI-1
aI-1
aI-1
aI-1
aI-1
aI-1
aI-1
aI-1
aI-1
aI-1
aI-1
aI-1
aI-1
aa(lp70
I-1
aI-1
aI-1
aI-1
aI-1
aI-1
aI-1
aI-1
aI-1
aI-1
aI-1
aI-1
aI-1
aI-1
aI-1
aI-1
aI-1
aI-1
aI-1
aI-1
aI-1
aI-1
aI-1
aI-1
aI-1
aI-1
aI-1
aI-1
aI-1
aI-1
aI-1
aI-1
aI-1
aI-1
aI-1
aI-1
aI-1
aI-1
aI-1
aI-1
aI-1
aI-1
aI-1
aI-1
aI-1
aI-1
aI-1
aI-1
aI-1
aI-1
aI-1
aI-1
aI-1
aI-1
aI-1
aI-1
aI-1
aI-1
aI-1
aI-1
aI-1
aI-1
aI-1
aI-1
aI-1
aI-1
aI-1
aI-1
aI-1
aI-1
aI-1
aI-1
aI-1
aI-1
aI-1
aI-1
aI-1
aI-1
aI-1
aI-1
aI-1
aI-1
aI-1
aI-1
aI-1
aI-1
aI-1
aI-1
aI-1
aI-1
aI-1
aI-1
aI-1
aI-1
aI-1
aI-1
aI-1
aI-1
aI-1
aI-1
aa(lp71
I-1
aI-1
aI-1
aI-1
aI-1
aI-1
aI-1
aI-1
aI-1
aI-1
aI-1
aI-1
aI-1
aI-1
aI-1
aI-1
aI-1
aI-1
aI-1
aI-1
aI-1
aI-1
aI-1
aI-1
aI-1
aI-1
aI-1
aI-1
aI-1
aI-1
aI-1
aI-1
aI-1
aI-1
aI-1
aI-1
aI-1
aI-1
aI-1
aI-1
aI-1
aI-1
aI-1
aI-1
aI-1
aI-1
aI-1
aI-1
aI-1
aI-1
aI-1
aI-1
aI-1
aI-1
aI-1
aI-1
aI-1
aI-1
aI-1
aI-1
aI-1
aI-1
aI-1
aI-1
aI-1
aI-1
aI-1
aI-1
aI-1
aI-1
aI-1
aI-1
aI-1
aI-1
aI-1
aI-1
aI-1
aI-1
aI-1
aI-1
aI-1
aI-1
aI-1
aI-1
aI-1
aI-1
aI-1
aI-1
aI-1
aI-1
aI-1
aI-1
aI-1
aI-1
aI-1
aI-1
aI-1
aI-1
aI-1
aI-1
aa(lp72
I-1
aI-1
aI-1
aI-1
aI-1
aI-1
aI-1
aI-1
aI-1
aI-1
aI-1
aI-1
aI-1
aI-1
aI-1
aI-1
aI-1
aI-1
aI-1
aI-1
aI-1
aI-1
aI-1
aI-1
aI-1
aI-1
aI-1
aI-1
aI-1
aI-1
aI-1
aI-1
aI-1
aI-1
aI-1
aI-1
aI-1
aI-1
aI-1
aI-1
aI-1
aI-1
aI-1
aI-1
aI-1
aI-1
aI-1
aI-1
aI-1
aI-1
aI-1
aI-1
aI-1
aI-1
aI-1
aI-1
aI-1
aI-1
aI-1
aI-1
aI-1
aI-1
aI-1
aI-1
aI-1
aI-1
aI-1
aI-1
aI-1
aI-1
aI-1
aI-1
aI-1
aI-1
aI-1
aI-1
aI-1
aI-1
aI-1
aI-1
aI-1
aI-1
aI-1
aI-1
aI-1
aI-1
aI-1
aI-1
aI-1
aI-1
aI-1
aI-1
aI-1
aI-1
aI-1
aI-1
aI-1
aI-1
aI-1
aI-1
aa(lp73
I-1
aI-1
aI-1
aI-1
aI-1
aI-1
aI-1
aI-1
aI-1
aI-1
aI-1
aI-1
aI-1
aI-1
aI-1
aI-1
aI-1
aI-1
aI-1
aI-1
aI-1
aI-1
aI-1
aI-1
aI-1
aI-1
aI-1
aI-1
aI-1
aI-1
aI-1
aI-1
aI-1
aI-1
aI-1
aI-1
aI-1
aI-1
aI-1
aI-1
aI-1
aI-1
aI-1
aI-1
aI-1
aI-1
aI-1
aI-1
aI-1
aI-1
aI-1
aI-1
aI-1
aI-1
aI-1
aI-1
aI-1
aI-1
aI-1
aI-1
aI-1
aI-1
aI-1
aI-1
aI-1
aI-1
aI-1
aI-1
aI-1
aI-1
aI-1
aI-1
aI-1
aI-1
aI-1
aI-1
aI-1
aI-1
aI-1
aI-1
aI-1
aI-1
aI-1
aI-1
aI-1
aI-1
aI-1
aI-1
aI-1
aI-1
aI-1
aI-1
aI-1
aI-1
aI-1
aI-1
aI-1
aI-1
aI-1
aI-1
aa(lp74
I-1
aI-1
aI-1
aI-1
aI-1
aI-1
aI-1
aI-1
aI-1
aI-1
aI-1
aI-1
aI-1
aI-1
aI-1
aI-1
aI-1
aI-1
aI-1
aI-1
aI-1
aI-1
aI-1
aI-1
aI-1
aI-1
aI-1
aI-1
aI-1
aI-1
aI-1
aI-1
aI-1
aI-1
aI-1
aI-1
aI-1
aI-1
aI-1
aI-1
aI-1
aI-1
aI-1
aI-1
aI-1
aI-1
aI-1
aI-1
aI-1
aI-1
aI-1
aI-1
aI-1
aI-1
aI-1
aI-1
aI-1
aI-1
aI-1
aI-1
aI-1
aI-1
aI-1
aI-1
aI-1
aI-1
aI-1
aI-1
aI-1
aI-1
aI-1
aI-1
aI-1
aI-1
aI-1
aI-1
aI-1
aI-1
aI-1
aI-1
aI-1
aI-1
aI-1
aI-1
aI-1
aI-1
aI-1
aI-1
aI-1
aI-1
aI-1
aI-1
aI-1
aI-1
aI-1
aI-1
aI-1
aI-1
aI-1
aI-1
aa(lp75
I-1
aI-1
aI-1
aI-1
aI-1
aI-1
aI-1
aI-1
aI-1
aI-1
aI-1
aI-1
aI-1
aI-1
aI-1
aI-1
aI-1
aI-1
aI-1
aI-1
aI-1
aI-1
aI-1
aI-1
aI-1
aI-1
aI-1
aI-1
aI-1
aI-1
aI-1
aI-1
aI-1
aI-1
aI-1
aI-1
aI-1
aI-1
aI-1
aI-1
aI-1
aI-1
aI-1
aI-1
aI-1
aI-1
aI-1
aI-1
aI-1
aI-1
aI-1
aI-1
aI-1
aI-1
aI-1
aI-1
aI-1
aI-1
aI-1
aI-1
aI-1
aI-1
aI-1
aI-1
aI-1
aI-1
aI-1
aI-1
aI-1
aI-1
aI-1
aI-1
aI-1
aI-1
aI-1
aI-1
aI-1
aI-1
aI-1
aI-1
aI-1
aI-1
aI-1
aI-1
aI-1
aI-1
aI-1
aI-1
aI-1
aI-1
aI-1
aI-1
aI-1
aI-1
aI-1
aI-1
aI-1
aI-1
aI-1
aI-1
aa(lp76
I-1
aI-1
aI-1
aI-1
aI-1
aI-1
aI-1
aI-1
aI-1
aI-1
aI-1
aI-1
aI-1
aI-1
aI-1
aI-1
aI-1
aI-1
aI-1
aI-1
aI-1
aI-1
aI-1
aI-1
aI-1
aI-1
aI-1
aI-1
aI-1
aI-1
aI-1
aI-1
aI-1
aI-1
aI-1
aI-1
aI-1
aI-1
aI-1
aI-1
aI-1
aI-1
aI-1
aI-1
aI-1
aI-1
aI-1
aI-1
aI-1
aI-1
aI-1
aI-1
aI-1
aI-1
aI-1
aI-1
aI-1
aI-1
aI-1
aI-1
aI-1
aI-1
aI-1
aI-1
aI-1
aI-1
aI-1
aI-1
aI-1
aI-1
aI-1
aI-1
aI-1
aI-1
aI-1
aI-1
aI-1
aI-1
aI-1
aI-1
aI-1
aI-1
aI-1
aI-1
aI-1
aI-1
aI-1
aI-1
aI-1
aI-1
aI-1
aI-1
aI-1
aI-1
aI-1
aI-1
aI-1
aI-1
aI-1
aI-1
aa(lp77
I-1
aI-1
aI-1
aI-1
aI-1
aI-1
aI-1
aI-1
aI-1
aI-1
aI-1
aI-1
aI-1
aI-1
aI-1
aI-1
aI-1
aI-1
aI-1
aI-1
aI-1
aI-1
aI-1
aI-1
aI-1
aI-1
aI-1
aI-1
aI-1
aI-1
aI-1
aI-1
aI-1
aI-1
aI-1
aI-1
aI-1
aI-1
aI-1
aI-1
aI-1
aI-1
aI-1
aI-1
aI-1
aI-1
aI-1
aI-1
aI-1
aI-1
aI-1
aI-1
aI-1
aI-1
aI-1
aI-1
aI-1
aI-1
aI-1
aI-1
aI-1
aI-1
aI-1
aI-1
aI-1
aI-1
aI-1
aI-1
aI-1
aI-1
aI-1
aI-1
aI-1
aI-1
aI-1
aI-1
aI-1
aI-1
aI-1
aI-1
aI-1
aI-1
aI-1
aI-1
aI-1
aI-1
aI-1
aI-1
aI-1
aI-1
aI-1
aI-1
aI-1
aI-1
aI-1
aI-1
aI-1
aI-1
aI-1
aI-1
aa(lp78
I-1
aI-1
aI-1
aI-1
aI-1
aI-1
aI-1
aI-1
aI-1
aI-1
aI-1
aI-1
aI-1
aI-1
aI-1
aI-1
aI-1
aI-1
aI-1
aI-1
aI-1
aI-1
aI-1
aI-1
aI-1
aI-1
aI-1
aI-1
aI-1
aI-1
aI-1
aI-1
aI-1
aI-1
aI-1
aI-1
aI-1
aI-1
aI-1
aI-1
aI-1
aI-1
aI-1
aI-1
aI-1
aI-1
aI-1
aI-1
aI-1
aI-1
aI-1
aI-1
aI-1
aI-1
aI-1
aI-1
aI-1
aI-1
aI-1
aI-1
aI-1
aI-1
aI-1
aI-1
aI-1
aI-1
aI-1
aI-1
aI-1
aI-1
aI-1
aI-1
aI-1
aI-1
aI-1
aI-1
aI-1
aI-1
aI-1
aI-1
aI-1
aI-1
aI-1
aI-1
aI-1
aI-1
aI-1
aI-1
aI-1
aI-1
aI-1
aI-1
aI-1
aI-1
aI-1
aI-1
aI-1
aI-1
aI-1
aI-1
aa(lp79
I-1
aI-1
aI-1
aI-1
aI-1
aI-1
aI-1
aI-1
aI-1
aI-1
aI-1
aI-1
aI-1
aI-1
aI-1
aI-1
aI-1
aI-1
aI-1
aI-1
aI-1
aI-1
aI-1
aI-1
aI-1
aI-1
aI-1
aI-1
aI-1
aI-1
aI-1
aI-1
aI-1
aI-1
aI-1
aI-1
aI-1
aI-1
aI-1
aI-1
aI-1
aI-1
aI-1
aI-1
aI-1
aI-1
aI-1
aI-1
aI-1
aI-1
aI-1
aI-1
aI-1
aI-1
aI-1
aI-1
aI-1
aI-1
aI-1
aI-1
aI-1
aI-1
aI-1
aI-1
aI-1
aI-1
aI-1
aI-1
aI-1
aI-1
aI-1
aI-1
aI-1
aI-1
aI-1
aI-1
aI-1
aI-1
aI-1
aI-1
aI-1
aI-1
aI-1
aI-1
aI-1
aI-1
aI-1
aI-1
aI-1
aI-1
aI-1
aI-1
aI-1
aI-1
aI-1
aI-1
aI-1
aI-1
aI-1
aI-1
aa(lp80
I-1
aI-1
aI-1
aI-1
aI-1
aI-1
aI-1
aI-1
aI-1
aI-1
aI-1
aI-1
aI-1
aI-1
aI-1
aI-1
aI-1
aI-1
aI-1
aI-1
aI-1
aI-1
aI-1
aI-1
aI-1
aI-1
aI-1
aI-1
aI-1
aI-1
aI-1
aI-1
aI-1
aI-1
aI-1
aI-1
aI-1
aI-1
aI-1
aI-1
aI-1
aI-1
aI-1
aI-1
aI-1
aI-1
aI-1
aI-1
aI-1
aI-1
aI-1
aI-1
aI-1
aI-1
aI-1
aI-1
aI-1
aI-1
aI-1
aI-1
aI-1
aI-1
aI-1
aI-1
aI-1
aI-1
aI-1
aI-1
aI-1
aI-1
aI-1
aI-1
aI-1
aI-1
aI-1
aI-1
aI-1
aI-1
aI-1
aI-1
aI-1
aI-1
aI-1
aI-1
aI-1
aI-1
aI-1
aI-1
aI-1
aI-1
aI-1
aI-1
aI-1
aI-1
aI-1
aI-1
aI-1
aI-1
aI-1
aI-1
aa(lp81
I-1
aI-1
aI-1
aI-1
aI-1
aI-1
aI-1
aI-1
aI-1
aI-1
aI-1
aI-1
aI-1
aI-1
aI-1
aI-1
aI-1
aI-1
aI-1
aI-1
aI-1
aI-1
aI-1
aI-1
aI-1
aI-1
aI-1
aI-1
aI-1
aI-1
aI-1
aI-1
aI-1
aI-1
aI-1
aI-1
aI-1
aI-1
aI-1
aI-1
aI-1
aI-1
aI-1
aI-1
aI-1
aI-1
aI-1
aI-1
aI-1
aI-1
aI-1
aI-1
aI-1
aI-1
aI-1
aI-1
aI-1
aI-1
aI-1
aI-1
aI-1
aI-1
aI-1
aI-1
aI-1
aI-1
aI-1
aI-1
aI-1
aI-1
aI-1
aI-1
aI-1
aI-1
aI-1
aI-1
aI-1
aI-1
aI-1
aI-1
aI-1
aI-1
aI-1
aI-1
aI-1
aI-1
aI-1
aI-1
aI-1
aI-1
aI-1
aI-1
aI-1
aI-1
aI-1
aI-1
aI-1
aI-1
aI-1
aI-1
aa(lp82
I-1
aI-1
aI-1
aI-1
aI-1
aI-1
aI-1
aI-1
aI-1
aI-1
aI-1
aI-1
aI-1
aI-1
aI-1
aI-1
aI-1
aI-1
aI-1
aI-1
aI-1
aI-1
aI-1
aI-1
aI-1
aI-1
aI-1
aI-1
aI-1
aI-1
aI-1
aI-1
aI-1
aI-1
aI-1
aI-1
aI-1
aI-1
aI-1
aI-1
aI-1
aI-1
aI-1
aI-1
aI-1
aI-1
aI-1
aI-1
aI-1
aI-1
aI-1
aI-1
aI-1
aI-1
aI-1
aI-1
aI-1
aI-1
aI-1
aI-1
aI-1
aI-1
aI-1
aI-1
aI-1
aI-1
aI-1
aI-1
aI-1
aI-1
aI-1
aI-1
aI-1
aI-1
aI-1
aI-1
aI-1
aI-1
aI-1
aI-1
aI-1
aI-1
aI-1
aI-1
aI-1
aI-1
aI-1
aI-1
aI-1
aI-1
aI-1
aI-1
aI-1
aI-1
aI-1
aI-1
aI-1
aI-1
aI-1
aI-1
aa(lp83
I-1
aI-1
aI-1
aI-1
aI-1
aI-1
aI-1
aI-1
aI-1
aI-1
aI-1
aI-1
aI-1
aI-1
aI-1
aI-1
aI-1
aI-1
aI-1
aI-1
aI-1
aI-1
aI-1
aI-1
aI-1
aI-1
aI-1
aI-1
aI-1
aI-1
aI-1
aI-1
aI-1
aI-1
aI-1
aI-1
aI-1
aI-1
aI-1
aI-1
aI-1
aI-1
aI-1
aI-1
aI-1
aI-1
aI-1
aI-1
aI-1
aI-1
aI-1
aI-1
aI-1
aI-1
aI-1
aI-1
aI-1
aI-1
aI-1
aI-1
aI-1
aI-1
aI-1
aI-1
aI-1
aI-1
aI-1
aI-1
aI-1
aI-1
aI-1
aI-1
aI-1
aI-1
aI-1
aI-1
aI-1
aI-1
aI-1
aI-1
aI-1
aI-1
aI-1
aI-1
aI-1
aI-1
aI-1
aI-1
aI-1
aI-1
aI-1
aI-1
aI-1
aI-1
aI-1
aI-1
aI-1
aI-1
aI-1
aI-1
aa(lp84
I-1
aI-1
aI-1
aI-1
aI-1
aI-1
aI-1
aI-1
aI-1
aI-1
aI-1
aI-1
aI-1
aI-1
aI-1
aI-1
aI-1
aI-1
aI-1
aI-1
aI-1
aI-1
aI-1
aI-1
aI-1
aI-1
aI-1
aI-1
aI-1
aI-1
aI-1
aI-1
aI-1
aI-1
aI-1
aI-1
aI-1
aI-1
aI-1
aI-1
aI-1
aI-1
aI-1
aI-1
aI-1
aI-1
aI-1
aI-1
aI-1
aI-1
aI-1
aI-1
aI-1
aI-1
aI-1
aI-1
aI-1
aI-1
aI-1
aI-1
aI-1
aI-1
aI-1
aI-1
aI-1
aI-1
aI-1
aI-1
aI-1
aI-1
aI-1
aI-1
aI-1
aI-1
aI-1
aI-1
aI-1
aI-1
aI-1
aI-1
aI-1
aI-1
aI-1
aI-1
aI-1
aI-1
aI-1
aI-1
aI-1
aI-1
aI-1
aI-1
aI-1
aI-1
aI-1
aI-1
aI-1
aI-1
aI-1
aI-1
aa(lp85
I-1
aI-1
aI-1
aI-1
aI-1
aI-1
aI-1
aI-1
aI-1
aI-1
aI-1
aI-1
aI-1
aI-1
aI-1
aI-1
aI-1
aI-1
aI-1
aI-1
aI-1
aI-1
aI-1
aI-1
aI-1
aI-1
aI-1
aI-1
aI-1
aI-1
aI-1
aI-1
aI-1
aI-1
aI-1
aI-1
aI-1
aI-1
aI-1
aI-1
aI-1
aI-1
aI-1
aI-1
aI-1
aI-1
aI-1
aI-1
aI-1
aI-1
aI-1
aI-1
aI-1
aI-1
aI-1
aI-1
aI-1
aI-1
aI-1
aI-1
aI-1
aI-1
aI-1
aI-1
aI-1
aI-1
aI-1
aI-1
aI-1
aI-1
aI-1
aI-1
aI-1
aI-1
aI-1
aI-1
aI-1
aI-1
aI-1
aI-1
aI-1
aI-1
aI-1
aI-1
aI-1
aI-1
aI-1
aI-1
aI-1
aI-1
aI-1
aI-1
aI-1
aI-1
aI-1
aI-1
aI-1
aI-1
aI-1
aI-1
aa(lp86
I-1
aI-1
aI-1
aI-1
aI-1
aI-1
aI-1
aI-1
aI-1
aI-1
aI-1
aI-1
aI-1
aI-1
aI-1
aI-1
aI-1
aI-1
aI-1
aI-1
aI-1
aI-1
aI-1
aI-1
aI-1
aI-1
aI-1
aI-1
aI-1
aI-1
aI-1
aI-1
aI-1
aI-1
aI-1
aI-1
aI-1
aI-1
aI-1
aI-1
aI-1
aI-1
aI-1
aI-1
aI-1
aI-1
aI-1
aI-1
aI-1
aI-1
aI-1
aI-1
aI-1
aI-1
aI-1
aI-1
aI-1
aI-1
aI-1
aI-1
aI-1
aI-1
aI-1
aI-1
aI-1
aI-1
aI-1
aI-1
aI-1
aI-1
aI-1
aI-1
aI-1
aI-1
aI-1
aI-1
aI-1
aI-1
aI-1
aI-1
aI-1
aI-1
aI-1
aI-1
aI-1
aI-1
aI-1
aI-1
aI-1
aI-1
aI-1
aI-1
aI-1
aI-1
aI-1
aI-1
aI-1
aI-1
aI-1
aI-1
aa(lp87
I-1
aI-1
aI-1
aI-1
aI-1
aI-1
aI-1
aI-1
aI-1
aI-1
aI-1
aI-1
aI-1
aI-1
aI-1
aI-1
aI-1
aI-1
aI-1
aI-1
aI-1
aI-1
aI-1
aI-1
aI-1
aI-1
aI-1
aI-1
aI-1
aI-1
aI-1
aI-1
aI-1
aI-1
aI-1
aI-1
aI-1
aI-1
aI-1
aI-1
aI-1
aI-1
aI-1
aI-1
aI-1
aI-1
aI-1
aI-1
aI-1
aI-1
aI-1
aI-1
aI-1
aI-1
aI-1
aI-1
aI-1
aI-1
aI-1
aI-1
aI-1
aI-1
aI-1
aI-1
aI-1
aI-1
aI-1
aI-1
aI-1
aI-1
aI-1
aI-1
aI-1
aI-1
aI-1
aI-1
aI-1
aI-1
aI-1
aI-1
aI-1
aI-1
aI-1
aI-1
aI-1
aI-1
aI-1
aI-1
aI-1
aI-1
aI-1
aI-1
aI-1
aI-1
aI-1
aI-1
aI-1
aI-1
aI-1
aI-1
aa(lp88
I-1
aI-1
aI-1
aI-1
aI-1
aI-1
aI-1
aI-1
aI-1
aI-1
aI-1
aI-1
aI-1
aI-1
aI-1
aI-1
aI-1
aI-1
aI-1
aI-1
aI-1
aI-1
aI-1
aI-1
aI-1
aI-1
aI-1
aI-1
aI-1
aI-1
aI-1
aI-1
aI-1
aI-1
aI-1
aI-1
aI-1
aI-1
aI-1
aI-1
aI-1
aI-1
aI-1
aI-1
aI-1
aI-1
aI-1
aI-1
aI-1
aI-1
aI-1
aI-1
aI-1
aI-1
aI-1
aI-1
aI-1
aI-1
aI-1
aI-1
aI-1
aI-1
aI-1
aI-1
aI-1
aI-1
aI-1
aI-1
aI-1
aI-1
aI-1
aI-1
aI-1
aI-1
aI-1
aI-1
aI-1
aI-1
aI-1
aI-1
aI-1
aI-1
aI-1
aI-1
aI-1
aI-1
aI-1
aI-1
aI-1
aI-1
aI-1
aI-1
aI-1
aI-1
aI-1
aI-1
aI-1
aI-1
aI-1
aI-1
aa(lp89
I-1
aI-1
aI-1
aI-1
aI-1
aI-1
aI-1
aI-1
aI-1
aI-1
aI-1
aI-1
aI-1
aI-1
aI-1
aI-1
aI-1
aI-1
aI-1
aI-1
aI-1
aI-1
aI-1
aI-1
aI-1
aI-1
aI-1
aI-1
aI-1
aI-1
aI-1
aI-1
aI-1
aI-1
aI-1
aI-1
aI-1
aI-1
aI-1
aI-1
aI-1
aI-1
aI-1
aI-1
aI-1
aI-1
aI-1
aI-1
aI-1
aI-1
aI-1
aI-1
aI-1
aI-1
aI-1
aI-1
aI-1
aI-1
aI-1
aI-1
aI-1
aI-1
aI-1
aI-1
aI-1
aI-1
aI-1
aI-1
aI-1
aI-1
aI-1
aI-1
aI-1
aI-1
aI-1
aI-1
aI-1
aI-1
aI-1
aI-1
aI-1
aI-1
aI-1
aI-1
aI-1
aI-1
aI-1
aI-1
aI-1
aI-1
aI-1
aI-1
aI-1
aI-1
aI-1
aI-1
aI-1
aI-1
aI-1
aI-1
aa(lp90
I-1
aI-1
aI-1
aI-1
aI-1
aI-1
aI-1
aI-1
aI-1
aI-1
aI-1
aI-1
aI-1
aI-1
aI-1
aI-1
aI-1
aI-1
aI-1
aI-1
aI-1
aI-1
aI-1
aI-1
aI-1
aI-1
aI-1
aI-1
aI-1
aI-1
aI-1
aI-1
aI-1
aI-1
aI-1
aI-1
aI-1
aI-1
aI-1
aI-1
aI-1
aI-1
aI-1
aI-1
aI-1
aI-1
aI-1
aI-1
aI-1
aI-1
aI-1
aI-1
aI-1
aI-1
aI-1
aI-1
aI-1
aI-1
aI-1
aI-1
aI-1
aI-1
aI-1
aI-1
aI-1
aI-1
aI-1
aI-1
aI-1
aI-1
aI-1
aI-1
aI-1
aI-1
aI-1
aI-1
aI-1
aI-1
aI-1
aI-1
aI-1
aI-1
aI-1
aI-1
aI-1
aI-1
aI-1
aI-1
aI-1
aI-1
aI-1
aI-1
aI-1
aI-1
aI-1
aI-1
aI-1
aI-1
aI-1
aI-1
aa(lp91
I-1
aI-1
aI-1
aI-1
aI-1
aI-1
aI-1
aI-1
aI-1
aI-1
aI-1
aI-1
aI-1
aI-1
aI-1
aI-1
aI-1
aI-1
aI-1
aI-1
aI-1
aI-1
aI-1
aI-1
aI-1
aI-1
aI-1
aI-1
aI-1
aI-1
aI-1
aI-1
aI-1
aI-1
aI-1
aI-1
aI-1
aI-1
aI-1
aI-1
aI-1
aI-1
aI-1
aI-1
aI-1
aI-1
aI-1
aI-1
aI-1
aI-1
aI-1
aI-1
aI-1
aI-1
aI-1
aI-1
aI-1
aI-1
aI-1
aI-1
aI-1
aI-1
aI-1
aI-1
aI-1
aI-1
aI-1
aI-1
aI-1
aI-1
aI-1
aI-1
aI-1
aI-1
aI-1
aI-1
aI-1
aI-1
aI-1
aI-1
aI-1
aI-1
aI-1
aI-1
aI-1
aI-1
aI-1
aI-1
aI-1
aI-1
aI-1
aI-1
aI-1
aI-1
aI-1
aI-1
aI-1
aI-1
aI-1
aI-1
aa(lp92
I-1
aI-1
aI-1
aI-1
aI-1
aI-1
aI-1
aI-1
aI-1
aI-1
aI-1
aI-1
aI-1
aI-1
aI-1
aI-1
aI-1
aI-1
aI-1
aI-1
aI-1
aI-1
aI-1
aI-1
aI-1
aI-1
aI-1
aI-1
aI-1
aI-1
aI-1
aI-1
aI-1
aI-1
aI-1
aI-1
aI-1
aI-1
aI-1
aI-1
aI-1
aI-1
aI-1
aI-1
aI-1
aI-1
aI-1
aI-1
aI-1
aI-1
aI-1
aI-1
aI-1
aI-1
aI-1
aI-1
aI-1
aI-1
aI-1
aI-1
aI-1
aI-1
aI-1
aI-1
aI-1
aI-1
aI-1
aI-1
aI-1
aI-1
aI-1
aI-1
aI-1
aI-1
aI-1
aI-1
aI-1
aI-1
aI-1
aI-1
aI-1
aI-1
aI-1
aI-1
aI-1
aI-1
aI-1
aI-1
aI-1
aI-1
aI-1
aI-1
aI-1
aI-1
aI-1
aI-1
aI-1
aI-1
aI-1
aI-1
aa(lp93
I-1
aI-1
aI-1
aI-1
aI-1
aI-1
aI-1
aI-1
aI-1
aI-1
aI-1
aI-1
aI-1
aI-1
aI-1
aI-1
aI-1
aI-1
aI-1
aI-1
aI-1
aI-1
aI-1
aI-1
aI-1
aI-1
aI-1
aI-1
aI-1
aI-1
aI-1
aI-1
aI-1
aI-1
aI-1
aI-1
aI-1
aI-1
aI-1
aI-1
aI-1
aI-1
aI-1
aI-1
aI-1
aI-1
aI-1
aI-1
aI-1
aI-1
aI-1
aI-1
aI-1
aI-1
aI-1
aI-1
aI-1
aI-1
aI-1
aI-1
aI-1
aI-1
aI-1
aI-1
aI-1
aI-1
aI-1
aI-1
aI-1
aI-1
aI-1
aI-1
aI-1
aI-1
aI-1
aI-1
aI-1
aI-1
aI-1
aI-1
aI-1
aI-1
aI-1
aI-1
aI-1
aI-1
aI-1
aI-1
aI-1
aI-1
aI-1
aI-1
aI-1
aI-1
aI-1
aI-1
aI-1
aI-1
aI-1
aI-1
aa(lp94
I-1
aI-1
aI-1
aI-1
aI-1
aI-1
aI-1
aI-1
aI-1
aI-1
aI-1
aI-1
aI-1
aI-1
aI-1
aI-1
aI-1
aI-1
aI-1
aI-1
aI-1
aI-1
aI-1
aI-1
aI-1
aI-1
aI-1
aI-1
aI-1
aI-1
aI-1
aI-1
aI-1
aI-1
aI-1
aI-1
aI-1
aI-1
aI-1
aI-1
aI-1
aI-1
aI-1
aI-1
aI-1
aI-1
aI-1
aI-1
aI-1
aI-1
aI-1
aI-1
aI-1
aI-1
aI-1
aI-1
aI-1
aI-1
aI-1
aI-1
aI-1
aI-1
aI-1
aI-1
aI-1
aI-1
aI-1
aI-1
aI-1
aI-1
aI-1
aI-1
aI-1
aI-1
aI-1
aI-1
aI-1
aI-1
aI-1
aI-1
aI-1
aI-1
aI-1
aI-1
aI-1
aI-1
aI-1
aI-1
aI-1
aI-1
aI-1
aI-1
aI-1
aI-1
aI-1
aI-1
aI-1
aI-1
aI-1
aI-1
aa(lp95
I-1
aI-1
aI-1
aI-1
aI-1
aI-1
aI-1
aI-1
aI-1
aI-1
aI-1
aI-1
aI-1
aI-1
aI-1
aI-1
aI-1
aI-1
aI-1
aI-1
aI-1
aI-1
aI-1
aI-1
aI-1
aI-1
aI-1
aI-1
aI-1
aI-1
aI-1
aI-1
aI-1
aI-1
aI-1
aI-1
aI-1
aI-1
aI-1
aI-1
aI-1
aI-1
aI-1
aI-1
aI-1
aI-1
aI-1
aI-1
aI-1
aI-1
aI-1
aI-1
aI-1
aI-1
aI-1
aI-1
aI-1
aI-1
aI-1
aI-1
aI-1
aI-1
aI-1
aI-1
aI-1
aI-1
aI-1
aI-1
aI-1
aI-1
aI-1
aI-1
aI-1
aI-1
aI-1
aI-1
aI-1
aI-1
aI-1
aI-1
aI-1
aI-1
aI-1
aI-1
aI-1
aI-1
aI-1
aI-1
aI-1
aI-1
aI-1
aI-1
aI-1
aI-1
aI-1
aI-1
aI-1
aI-1
aI-1
aI-1
aa(lp96
I-1
aI-1
aI-1
aI-1
aI-1
aI-1
aI-1
aI-1
aI-1
aI-1
aI-1
aI-1
aI-1
aI-1
aI-1
aI-1
aI-1
aI-1
aI-1
aI-1
aI-1
aI-1
aI-1
aI-1
aI-1
aI-1
aI-1
aI-1
aI-1
aI-1
aI-1
aI-1
aI-1
aI-1
aI-1
aI-1
aI-1
aI-1
aI-1
aI-1
aI-1
aI-1
aI-1
aI-1
aI-1
aI-1
aI-1
aI-1
aI-1
aI-1
aI-1
aI-1
aI-1
aI-1
aI-1
aI-1
aI-1
aI-1
aI-1
aI-1
aI-1
aI-1
aI-1
aI-1
aI-1
aI-1
aI-1
aI-1
aI-1
aI-1
aI-1
aI-1
aI-1
aI-1
aI-1
aI-1
aI-1
aI-1
aI-1
aI-1
aI-1
aI-1
aI-1
aI-1
aI-1
aI-1
aI-1
aI-1
aI-1
aI-1
aI-1
aI-1
aI-1
aI-1
aI-1
aI-1
aI-1
aI-1
aI-1
aI-1
aa(lp97
I-1
aI-1
aI-1
aI-1
aI-1
aI-1
aI-1
aI-1
aI-1
aI-1
aI-1
aI-1
aI-1
aI-1
aI-1
aI-1
aI-1
aI-1
aI-1
aI-1
aI-1
aI-1
aI-1
aI-1
aI-1
aI-1
aI-1
aI-1
aI-1
aI-1
aI-1
aI-1
aI-1
aI-1
aI-1
aI-1
aI-1
aI-1
aI-1
aI-1
aI-1
aI-1
aI-1
aI-1
aI-1
aI-1
aI-1
aI-1
aI-1
aI-1
aI-1
aI-1
aI-1
aI-1
aI-1
aI-1
aI-1
aI-1
aI-1
aI-1
aI-1
aI-1
aI-1
aI-1
aI-1
aI-1
aI-1
aI-1
aI-1
aI-1
aI-1
aI-1
aI-1
aI-1
aI-1
aI-1
aI-1
aI-1
aI-1
aI-1
aI-1
aI-1
aI-1
aI-1
aI-1
aI-1
aI-1
aI-1
aI-1
aI-1
aI-1
aI-1
aI-1
aI-1
aI-1
aI-1
aI-1
aI-1
aI-1
aI-1
aa(lp98
I-1
aI-1
aI-1
aI-1
aI-1
aI-1
aI-1
aI-1
aI-1
aI-1
aI-1
aI-1
aI-1
aI-1
aI-1
aI-1
aI-1
aI-1
aI-1
aI-1
aI-1
aI-1
aI-1
aI-1
aI-1
aI-1
aI-1
aI-1
aI-1
aI-1
aI-1
aI-1
aI-1
aI-1
aI-1
aI-1
aI-1
aI-1
aI-1
aI-1
aI-1
aI-1
aI-1
aI-1
aI-1
aI-1
aI-1
aI-1
aI-1
aI-1
aI-1
aI-1
aI-1
aI-1
aI-1
aI-1
aI-1
aI-1
aI-1
aI-1
aI-1
aI-1
aI-1
aI-1
aI-1
aI-1
aI-1
aI-1
aI-1
aI-1
aI-1
aI-1
aI-1
aI-1
aI-1
aI-1
aI-1
aI-1
aI-1
aI-1
aI-1
aI-1
aI-1
aI-1
aI-1
aI-1
aI-1
aI-1
aI-1
aI-1
aI-1
aI-1
aI-1
aI-1
aI-1
aI-1
aI-1
aI-1
aI-1
aI-1
aa(lp99
I-1
aI-1
aI-1
aI-1
aI-1
aI-1
aI-1
aI-1
aI-1
aI-1
aI-1
aI-1
aI-1
aI-1
aI-1
aI-1
aI-1
aI-1
aI-1
aI-1
aI-1
aI-1
aI-1
aI-1
aI-1
aI-1
aI-1
aI-1
aI-1
aI-1
aI-1
aI-1
aI-1
aI-1
aI-1
aI-1
aI-1
aI-1
aI-1
aI-1
aI-1
aI-1
aI-1
aI-1
aI-1
aI-1
aI-1
aI-1
aI-1
aI-1
aI-1
aI-1
aI-1
aI-1
aI-1
aI-1
aI-1
aI-1
aI-1
aI-1
aI-1
aI-1
aI-1
aI-1
aI-1
aI-1
aI-1
aI-1
aI-1
aI-1
aI-1
aI-1
aI-1
aI-1
aI-1
aI-1
aI-1
aI-1
aI-1
aI-1
aI-1
aI-1
aI-1
aI-1
aI-1
aI-1
aI-1
aI-1
aI-1
aI-1
aI-1
aI-1
aI-1
aI-1
aI-1
aI-1
aI-1
aI-1
aI-1
aI-1
aa(lp100
I-1
aI-1
aI-1
aI-1
aI-1
aI-1
aI-1
aI-1
aI-1
aI-1
aI-1
aI-1
aI-1
aI-1
aI-1
aI-1
aI-1
aI-1
aI-1
aI-1
aI-1
aI-1
aI-1
aI-1
aI-1
aI-1
aI-1
aI-1
aI-1
aI-1
aI-1
aI-1
aI-1
aI-1
aI-1
aI-1
aI-1
aI-1
aI-1
aI-1
aI-1
aI-1
aI-1
aI-1
aI-1
aI-1
aI-1
aI-1
aI-1
aI-1
aI-1
aI-1
aI-1
aI-1
aI-1
aI-1
aI-1
aI-1
aI-1
aI-1
aI-1
aI-1
aI-1
aI-1
aI-1
aI-1
aI-1
aI-1
aI-1
aI-1
aI-1
aI-1
aI-1
aI-1
aI-1
aI-1
aI-1
aI-1
aI-1
aI-1
aI-1
aI-1
aI-1
aI-1
aI-1
aI-1
aI-1
aI-1
aI-1
aI-1
aI-1
aI-1
aI-1
aI-1
aI-1
aI-1
aI-1
aI-1
aI-1
aI-1
aa(lp101
I-1
aI-1
aI-1
aI-1
aI-1
aI-1
aI-1
aI-1
aI-1
aI-1
aI-1
aI-1
aI-1
aI-1
aI-1
aI-1
aI-1
aI-1
aI-1
aI-1
aI-1
aI-1
aI-1
aI-1
aI-1
aI-1
aI-1
aI-1
aI-1
aI-1
aI-1
aI-1
aI-1
aI-1
aI-1
aI-1
aI-1
aI-1
aI-1
aI-1
aI-1
aI-1
aI-1
aI-1
aI-1
aI-1
aI-1
aI-1
aI-1
aI-1
aI-1
aI-1
aI-1
aI-1
aI-1
aI-1
aI-1
aI-1
aI-1
aI-1
aI-1
aI-1
aI-1
aI-1
aI-1
aI-1
aI-1
aI-1
aI-1
aI-1
aI-1
aI-1
aI-1
aI-1
aI-1
aI-1
aI-1
aI-1
aI-1
aI-1
aI-1
aI-1
aI-1
aI-1
aI-1
aI-1
aI-1
aI-1
aI-1
aI-1
aI-1
aI-1
aI-1
aI-1
aI-1
aI-1
aI-1
aI-1
aI-1
aI-1
aa(lp102
I-1
aI-1
aI-1
aI-1
aI-1
aI-1
aI-1
aI-1
aI-1
aI-1
aI-1
aI-1
aI-1
aI-1
aI-1
aI-1
aI-1
aI-1
aI-1
aI-1
aI-1
aI-1
aI-1
aI-1
aI-1
aI-1
aI-1
aI-1
aI-1
aI-1
aI-1
aI-1
aI-1
aI-1
aI-1
aI-1
aI-1
aI-1
aI-1
aI-1
aI-1
aI-1
aI-1
aI-1
aI-1
aI-1
aI-1
aI-1
aI-1
aI-1
aI-1
aI-1
aI-1
aI-1
aI-1
aI-1
aI-1
aI-1
aI-1
aI-1
aI-1
aI-1
aI-1
aI-1
aI-1
aI-1
aI-1
aI-1
aI-1
aI-1
aI-1
aI-1
aI-1
aI-1
aI-1
aI-1
aI-1
aI-1
aI-1
aI-1
aI-1
aI-1
aI-1
aI-1
aI-1
aI-1
aI-1
aI-1
aI-1
aI-1
aI-1
aI-1
aI-1
aI-1
aI-1
aI-1
aI-1
aI-1
aI-1
aI-1
aa(lp103
I-1
aI-1
aI-1
aI-1
aI-1
aI-1
aI-1
aI-1
aI-1
aI-1
aI-1
aI-1
aI-1
aI-1
aI-1
aI-1
aI-1
aI-1
aI-1
aI-1
aI-1
aI-1
aI-1
aI-1
aI-1
aI-1
aI-1
aI-1
aI-1
aI-1
aI-1
aI-1
aI-1
aI-1
aI-1
aI-1
aI-1
aI-1
aI-1
aI-1
aI-1
aI-1
aI-1
aI-1
aI-1
aI-1
aI-1
aI-1
aI-1
aI-1
aI-1
aI-1
aI-1
aI-1
aI-1
aI-1
aI-1
aI-1
aI-1
aI-1
aI-1
aI-1
aI-1
aI-1
aI-1
aI-1
aI-1
aI-1
aI-1
aI-1
aI-1
aI-1
aI-1
aI-1
aI-1
aI-1
aI-1
aI-1
aI-1
aI-1
aI-1
aI-1
aI-1
aI-1
aI-1
aI-1
aI-1
aI-1
aI-1
aI-1
aI-1
aI-1
aI-1
aI-1
aI-1
aI-1
aI-1
aI-1
aI-1
aI-1
aa(lp104
I-1
aI-1
aI-1
aI-1
aI-1
aI-1
aI-1
aI-1
aI-1
aI-1
aI-1
aI-1
aI-1
aI-1
aI-1
aI-1
aI-1
aI-1
aI-1
aI-1
aI-1
aI-1
aI-1
aI-1
aI-1
aI-1
aI-1
aI-1
aI-1
aI-1
aI-1
aI-1
aI-1
aI-1
aI-1
aI-1
aI-1
aI-1
aI-1
aI-1
aI-1
aI-1
aI-1
aI-1
aI-1
aI-1
aI-1
aI-1
aI-1
aI-1
aI-1
aI-1
aI-1
aI-1
aI-1
aI-1
aI-1
aI-1
aI-1
aI-1
aI-1
aI-1
aI-1
aI-1
aI-1
aI-1
aI-1
aI-1
aI-1
aI-1
aI-1
aI-1
aI-1
aI-1
aI-1
aI-1
aI-1
aI-1
aI-1
aI-1
aI-1
aI-1
aI-1
aI-1
aI-1
aI-1
aI-1
aI-1
aI-1
aI-1
aI-1
aI-1
aI-1
aI-1
aI-1
aI-1
aI-1
aI-1
aI-1
aI-1
aa(lp105
I-1
aI-1
aI-1
aI-1
aI-1
aI-1
aI-1
aI-1
aI-1
aI-1
aI-1
aI-1
aI-1
aI-1
aI-1
aI-1
aI-1
aI-1
aI-1
aI-1
aI-1
aI-1
aI-1
aI-1
aI-1
aI-1
aI-1
aI-1
aI-1
aI-1
aI-1
aI-1
aI-1
aI-1
aI-1
aI-1
aI-1
aI-1
aI-1
aI-1
aI-1
aI-1
aI-1
aI-1
aI-1
aI-1
aI-1
aI-1
aI-1
aI-1
aI-1
aI-1
aI-1
aI-1
aI-1
aI-1
aI-1
aI-1
aI-1
aI-1
aI-1
aI-1
aI-1
aI-1
aI-1
aI-1
aI-1
aI-1
aI-1
aI-1
aI-1
aI-1
aI-1
aI-1
aI-1
aI-1
aI-1
aI-1
aI-1
aI-1
aI-1
aI-1
aI-1
aI-1
aI-1
aI-1
aI-1
aI-1
aI-1
aI-1
aI-1
aI-1
aI-1
aI-1
aI-1
aI-1
aI-1
aI-1
aI-1
aI-1
aa(lp106
I-1
aI-1
aI-1
aI-1
aI-1
aI-1
aI-1
aI-1
aI-1
aI-1
aI-1
aI-1
aI-1
aI-1
aI-1
aI-1
aI-1
aI-1
aI-1
aI-1
aI-1
aI-1
aI-1
aI-1
aI-1
aI-1
aI-1
aI-1
aI-1
aI-1
aI-1
aI-1
aI-1
aI-1
aI-1
aI-1
aI-1
aI-1
aI-1
aI-1
aI-1
aI-1
aI-1
aI-1
aI-1
aI-1
aI-1
aI-1
aI-1
aI-1
aI-1
aI-1
aI-1
aI-1
aI-1
aI-1
aI-1
aI-1
aI-1
aI-1
aI-1
aI-1
aI-1
aI-1
aI-1
aI-1
aI-1
aI-1
aI-1
aI-1
aI-1
aI-1
aI-1
aI-1
aI-1
aI-1
aI-1
aI-1
aI-1
aI-1
aI-1
aI-1
aI-1
aI-1
aI-1
aI-1
aI-1
aI-1
aI-1
aI-1
aI-1
aI-1
aI-1
aI-1
aI-1
aI-1
aI-1
aI-1
aI-1
aI-1
aa(lp107
I-1
aI-1
aI-1
aI-1
aI-1
aI-1
aI-1
aI-1
aI-1
aI-1
aI-1
aI-1
aI-1
aI-1
aI-1
aI-1
aI-1
aI-1
aI-1
aI-1
aI-1
aI-1
aI-1
aI-1
aI-1
aI-1
aI-1
aI-1
aI-1
aI-1
aI-1
aI-1
aI-1
aI-1
aI-1
aI-1
aI-1
aI-1
aI-1
aI-1
aI-1
aI-1
aI-1
aI-1
aI-1
aI-1
aI-1
aI-1
aI-1
aI-1
aI-1
aI-1
aI-1
aI-1
aI-1
aI-1
aI-1
aI-1
aI-1
aI-1
aI-1
aI-1
aI-1
aI-1
aI-1
aI-1
aI-1
aI-1
aI-1
aI-1
aI-1
aI-1
aI-1
aI-1
aI-1
aI-1
aI-1
aI-1
aI-1
aI-1
aI-1
aI-1
aI-1
aI-1
aI-1
aI-1
aI-1
aI-1
aI-1
aI-1
aI-1
aI-1
aI-1
aI-1
aI-1
aI-1
aI-1
aI-1
aI-1
aI-1
aasS'points'
p108
(lp109
g0
(ctour_guide_system.src.data.school_data
School_spot
p110
g2
Ntp111
Rp112
(dp113
S'function'
p114
(lp115
S'\xe5\xad\xa6\xe4\xb9\xa0'
p116
aS'\xe5\x80\x9f\xe4\xb9\xa6'
p117
aS'\xe5\x92\x96\xe5\x95\xa1'
p118
asS'discription'
p119
V\u56fe\u4e66\u9986\uff0c\u662f\u641c\u96c6\u3001\u6574\u7406\u3001\u6536\u85cf\u56fe\u4e66\u8d44\u6599\u4ee5\u4f9b\u4eba\u9605\u89c8\u3001\u53c2\u8003\u7684\u673a\u6784\uff0c\u65e9\u5728\u516c\u5143\u524d3000\u5e74\u5c31\u51fa\u73b0\u4e86\u56fe\u4e66\u9986\uff0c\u56fe\u4e66\u9986\u6709\u4fdd\u5b58\u4eba\u7c7b\u6587\u5316\u9057\u4ea7\u3001\u5f00\u53d1\u4fe1\u606f\u8d44\u6e90\u3001\u53c2\u4e0e\u793e\u4f1a\u6559\u80b2\u7b49\u804c\u80fd\u3002\u636e\u300a\u5728\u8f9e\u5178\u4e2d\u51fa\u73b0\u7684\u201c\u56fe\u4e66\u9986\u201d\u300b\u8bf4\uff0c\u201c\u56fe\u4e66\u9986\u201d\u4e00\u8bcd\u6700\u521d\u5728\u65e5\u672c\u7684\u6587\u732e\u4e2d\u51fa\u73b0\u662f1877\u5e74\u7684\u4e8b\uff1b\u800c\u6700\u65e9\u5728\u6211\u56fd\u6587\u732e\u4e2d\u51fa\u73b0\uff0c\u5f53\u63a8\u300a\u6559\u80b2\u4e16\u754c\u300b\u7b2c62\u671f\u4e2d\u6240\u520a\u51fa\u7684\u4e00\u7bc7\u300a\u62df\u8bbe\u7b80\u4fbf\u56fe\u4e66\u9986\u8bf4\u300b\uff0c\u65f6\u4e3a1894\u5e74\u3002
p120
sS'flag'
p121
I01
sS'id'
p122
I0
sS'name'
p123
V\u56fe\u4e66\u9986
p124
sbag0
(g110
g2
Ntp125
Rp126
(dp127
g114
(lp128
V\u5b66\u4e60
p129
aV\u5496\u5561
p130
aV\u4f11\u606f
p131
asg119
V\u56fe\u4e66\u9986\uff0c\u662f\u641c\u96c6\u3001\u6574\u7406\u3001\u6536\u85cf\u56fe\u4e66\u8d44\u6599\u4ee5\u4f9b\u4eba\u9605\u89c8\u3001\u53c2\u8003\u7684\u673a\u6784\uff0c\u65e9\u5728\u516c\u5143\u524d3000\u5e74\u5c31\u51fa\u73b0\u4e86\u56fe\u4e66\u9986\uff0c\u56fe\u4e66\u9986\u6709\u4fdd\u5b58\u4eba\u7c7b\u6587\u5316\u9057\u4ea7\u3001\u5f00\u53d1\u4fe1\u606f\u8d44\u6e90\u3001\u53c2\u4e0e\u793e\u4f1a\u6559\u80b2\u7b49\u804c\u80fd\u3002\u636e\u300a\u5728\u8f9e\u5178\u4e2d\u51fa\u73b0\u7684\u201c\u56fe\u4e66\u9986\u201d\u300b\u8bf4\uff0c\u201c\u56fe\u4e66\u9986\u201d\u4e00\u8bcd\u6700\u521d\u5728\u65e5\u672c\u7684\u6587\u732e\u4e2d\u51fa\u73b0\u662f1877\u5e74\u7684\u4e8b\uff1b\u800c\u6700\u65e9\u5728\u6211\u56fd\u6587\u732e\u4e2d\u51fa\u73b0\uff0c\u5f53\u63a8\u300a\u6559\u80b2\u4e16\u754c\u300b\u7b2c62\u671f\u4e2d\u6240\u520a\u51fa\u7684\u4e00\u7bc7\u300a\u62df\u8bbe\u7b80\u4fbf\u56fe\u4e66\u9986\u8bf4\u300b\uff0c\u65f6\u4e3a1894\u5e74\u3002
p132
sg121
I01
sg122
I1
sg123
V\u7b2c\u4e8c\u6559\u5b66\u697c
p133
sbag0
(g110
g2
Ntp134
Rp135
(dp136
g114
(lp137
sg119
S''
p138
sg121
I00
sg122
I2
sg123
g138
sbag0
(g110
g2
Ntp139
Rp140
(dp141
g114
(lp142
sg119
g138
sg121
I00
sg122
I3
sg123
g138
sbag0
(g110
g2
Ntp143
Rp144
(dp145
g114
(lp146
sg119
g138
sg121
I00
sg122
I4
sg123
g138
sbag0
(g110
g2
Ntp147
Rp148
(dp149
g114
(lp150
sg119
g138
sg121
I00
sg122
I5
sg123
g138
sbag0
(g110
g2
Ntp151
Rp152
(dp153
g114
(lp154
sg119
g138
sg121
I00
sg122
I6
sg123
g138
sbag0
(g110
g2
Ntp155
Rp156
(dp157
g114
(lp158
sg119
g138
sg121
I00
sg122
I7
sg123
g138
sbag0
(g110
g2
Ntp159
Rp160
(dp161
g114
(lp162
sg119
g138
sg121
I00
sg122
I8
sg123
g138
sbag0
(g110
g2
Ntp163
Rp164
(dp165
g114
(lp166
sg119
g138
sg121
I00
sg122
I9
sg123
g138
sbag0
(g110
g2
Ntp167
Rp168
(dp169
g114
(lp170
sg119
g138
sg121
I00
sg122
I10
sg123
g138
sbag0
(g110
g2
Ntp171
Rp172
(dp173
g114
(lp174
sg119
g138
sg121
I00
sg122
I11
sg123
g138
sbag0
(g110
g2
Ntp175
Rp176
(dp177
g114
(lp178
sg119
g138
sg121
I00
sg122
I12
sg123
g138
sbag0
(g110
g2
Ntp179
Rp180
(dp181
g114
(lp182
sg119
g138
sg121
I00
sg122
I13
sg123
g138
sbag0
(g110
g2
Ntp183
Rp184
(dp185
g114
(lp186
sg119
g138
sg121
I00
sg122
I14
sg123
g138
sbag0
(g110
g2
Ntp187
Rp188
(dp189
g114
(lp190
sg119
g138
sg121
I00
sg122
I15
sg123
g138
sbag0
(g110
g2
Ntp191
Rp192
(dp193
g114
(lp194
sg119
g138
sg121
I00
sg122
I16
sg123
g138
sbag0
(g110
g2
Ntp195
Rp196
(dp197
g114
(lp198
sg119
g138
sg121
I00
sg122
I17
sg123
g138
sbag0
(g110
g2
Ntp199
Rp200
(dp201
g114
(lp202
sg119
g138
sg121
I00
sg122
I18
sg123
g138
sbag0
(g110
g2
Ntp203
Rp204
(dp205
g114
(lp206
sg119
g138
sg121
I00
sg122
I19
sg123
g138
sbag0
(g110
g2
Ntp207
Rp208
(dp209
g114
(lp210
sg119
g138
sg121
I00
sg122
I20
sg123
g138
sbag0
(g110
g2
Ntp211
Rp212
(dp213
g114
(lp214
sg119
g138
sg121
I00
sg122
I21
sg123
g138
sbag0
(g110
g2
Ntp215
Rp216
(dp217
g114
(lp218
sg119
g138
sg121
I00
sg122
I22
sg123
g138
sbag0
(g110
g2
Ntp219
Rp220
(dp221
g114
(lp222
sg119
g138
sg121
I00
sg122
I23
sg123
g138
sbag0
(g110
g2
Ntp223
Rp224
(dp225
g114
(lp226
sg119
g138
sg121
I00
sg122
I24
sg123
g138
sbag0
(g110
g2
Ntp227
Rp228
(dp229
g114
(lp230
sg119
g138
sg121
I00
sg122
I25
sg123
g138
sbag0
(g110
g2
Ntp231
Rp232
(dp233
g114
(lp234
sg119
g138
sg121
I00
sg122
I26
sg123
g138
sbag0
(g110
g2
Ntp235
Rp236
(dp237
g114
(lp238
sg119
g138
sg121
I00
sg122
I27
sg123
g138
sbag0
(g110
g2
Ntp239
Rp240
(dp241
g114
(lp242
sg119
g138
sg121
I00
sg122
I28
sg123
g138
sbag0
(g110
g2
Ntp243
Rp244
(dp245
g114
(lp246
sg119
g138
sg121
I00
sg122
I29
sg123
g138
sbag0
(g110
g2
Ntp247
Rp248
(dp249
g114
(lp250
sg119
g138
sg121
I00
sg122
I30
sg123
g138
sbag0
(g110
g2
Ntp251
Rp252
(dp253
g114
(lp254
sg119
g138
sg121
I00
sg122
I31
sg123
g138
sbag0
(g110
g2
Ntp255
Rp256
(dp257
g114
(lp258
sg119
g138
sg121
I00
sg122
I32
sg123
g138
sbag0
(g110
g2
Ntp259
Rp260
(dp261
g114
(lp262
sg119
g138
sg121
I00
sg122
I33
sg123
g138
sbag0
(g110
g2
Ntp263
Rp264
(dp265
g114
(lp266
sg119
g138
sg121
I00
sg122
I34
sg123
g138
sbag0
(g110
g2
Ntp267
Rp268
(dp269
g114
(lp270
sg119
g138
sg121
I00
sg122
I35
sg123
g138
sbag0
(g110
g2
Ntp271
Rp272
(dp273
g114
(lp274
sg119
g138
sg121
I00
sg122
I36
sg123
g138
sbag0
(g110
g2
Ntp275
Rp276
(dp277
g114
(lp278
sg119
g138
sg121
I00
sg122
I37
sg123
g138
sbag0
(g110
g2
Ntp279
Rp280
(dp281
g114
(lp282
sg119
g138
sg121
I00
sg122
I38
sg123
g138
sbag0
(g110
g2
Ntp283
Rp284
(dp285
g114
(lp286
sg119
g138
sg121
I00
sg122
I39
sg123
g138
sbag0
(g110
g2
Ntp287
Rp288
(dp289
g114
(lp290
sg119
g138
sg121
I00
sg122
I40
sg123
g138
sbag0
(g110
g2
Ntp291
Rp292
(dp293
g114
(lp294
sg119
g138
sg121
I00
sg122
I41
sg123
g138
sbag0
(g110
g2
Ntp295
Rp296
(dp297
g114
(lp298
sg119
g138
sg121
I00
sg122
I42
sg123
g138
sbag0
(g110
g2
Ntp299
Rp300
(dp301
g114
(lp302
sg119
g138
sg121
I00
sg122
I43
sg123
g138
sbag0
(g110
g2
Ntp303
Rp304
(dp305
g114
(lp306
sg119
g138
sg121
I00
sg122
I44
sg123
g138
sbag0
(g110
g2
Ntp307
Rp308
(dp309
g114
(lp310
sg119
g138
sg121
I00
sg122
I45
sg123
g138
sbag0
(g110
g2
Ntp311
Rp312
(dp313
g114
(lp314
sg119
g138
sg121
I00
sg122
I46
sg123
g138
sbag0
(g110
g2
Ntp315
Rp316
(dp317
g114
(lp318
sg119
g138
sg121
I00
sg122
I47
sg123
g138
sbag0
(g110
g2
Ntp319
Rp320
(dp321
g114
(lp322
sg119
g138
sg121
I00
sg122
I48
sg123
g138
sbag0
(g110
g2
Ntp323
Rp324
(dp325
g114
(lp326
sg119
g138
sg121
I00
sg122
I49
sg123
g138
sbag0
(g110
g2
Ntp327
Rp328
(dp329
g114
(lp330
sg119
g138
sg121
I00
sg122
I50
sg123
g138
sbag0
(g110
g2
Ntp331
Rp332
(dp333
g114
(lp334
sg119
g138
sg121
I00
sg122
I51
sg123
g138
sbag0
(g110
g2
Ntp335
Rp336
(dp337
g114
(lp338
sg119
g138
sg121
I00
sg122
I52
sg123
g138
sbag0
(g110
g2
Ntp339
Rp340
(dp341
g114
(lp342
sg119
g138
sg121
I00
sg122
I53
sg123
g138
sbag0
(g110
g2
Ntp343
Rp344
(dp345
g114
(lp346
sg119
g138
sg121
I00
sg122
I54
sg123
g138
sbag0
(g110
g2
Ntp347
Rp348
(dp349
g114
(lp350
sg119
g138
sg121
I00
sg122
I55
sg123
g138
sbag0
(g110
g2
Ntp351
Rp352
(dp353
g114
(lp354
sg119
g138
sg121
I00
sg122
I56
sg123
g138
sbag0
(g110
g2
Ntp355
Rp356
(dp357
g114
(lp358
sg119
g138
sg121
I00
sg122
I57
sg123
g138
sbag0
(g110
g2
Ntp359
Rp360
(dp361
g114
(lp362
sg119
g138
sg121
I00
sg122
I58
sg123
g138
sbag0
(g110
g2
Ntp363
Rp364
(dp365
g114
(lp366
sg119
g138
sg121
I00
sg122
I59
sg123
g138
sbag0
(g110
g2
Ntp367
Rp368
(dp369
g114
(lp370
sg119
g138
sg121
I00
sg122
I60
sg123
g138
sbag0
(g110
g2
Ntp371
Rp372
(dp373
g114
(lp374
sg119
g138
sg121
I00
sg122
I61
sg123
g138
sbag0
(g110
g2
Ntp375
Rp376
(dp377
g114
(lp378
sg119
g138
sg121
I00
sg122
I62
sg123
g138
sbag0
(g110
g2
Ntp379
Rp380
(dp381
g114
(lp382
sg119
g138
sg121
I00
sg122
I63
sg123
g138
sbag0
(g110
g2
Ntp383
Rp384
(dp385
g114
(lp386
sg119
g138
sg121
I00
sg122
I64
sg123
g138
sbag0
(g110
g2
Ntp387
Rp388
(dp389
g114
(lp390
sg119
g138
sg121
I00
sg122
I65
sg123
g138
sbag0
(g110
g2
Ntp391
Rp392
(dp393
g114
(lp394
sg119
g138
sg121
I00
sg122
I66
sg123
g138
sbag0
(g110
g2
Ntp395
Rp396
(dp397
g114
(lp398
sg119
g138
sg121
I00
sg122
I67
sg123
g138
sbag0
(g110
g2
Ntp399
Rp400
(dp401
g114
(lp402
sg119
g138
sg121
I00
sg122
I68
sg123
g138
sbag0
(g110
g2
Ntp403
Rp404
(dp405
g114
(lp406
sg119
g138
sg121
I00
sg122
I69
sg123
g138
sbag0
(g110
g2
Ntp407
Rp408
(dp409
g114
(lp410
sg119
g138
sg121
I00
sg122
I70
sg123
g138
sbag0
(g110
g2
Ntp411
Rp412
(dp413
g114
(lp414
sg119
g138
sg121
I00
sg122
I71
sg123
g138
sbag0
(g110
g2
Ntp415
Rp416
(dp417
g114
(lp418
sg119
g138
sg121
I00
sg122
I72
sg123
g138
sbag0
(g110
g2
Ntp419
Rp420
(dp421
g114
(lp422
sg119
g138
sg121
I00
sg122
I73
sg123
g138
sbag0
(g110
g2
Ntp423
Rp424
(dp425
g114
(lp426
sg119
g138
sg121
I00
sg122
I74
sg123
g138
sbag0
(g110
g2
Ntp427
Rp428
(dp429
g114
(lp430
sg119
g138
sg121
I00
sg122
I75
sg123
g138
sbag0
(g110
g2
Ntp431
Rp432
(dp433
g114
(lp434
sg119
g138
sg121
I00
sg122
I76
sg123
g138
sbag0
(g110
g2
Ntp435
Rp436
(dp437
g114
(lp438
sg119
g138
sg121
I00
sg122
I77
sg123
g138
sbag0
(g110
g2
Ntp439
Rp440
(dp441
g114
(lp442
sg119
g138
sg121
I00
sg122
I78
sg123
g138
sbag0
(g110
g2
Ntp443
Rp444
(dp445
g114
(lp446
sg119
g138
sg121
I00
sg122
I79
sg123
g138
sbag0
(g110
g2
Ntp447
Rp448
(dp449
g114
(lp450
sg119
g138
sg121
I00
sg122
I80
sg123
g138
sbag0
(g110
g2
Ntp451
Rp452
(dp453
g114
(lp454
sg119
g138
sg121
I00
sg122
I81
sg123
g138
sbag0
(g110
g2
Ntp455
Rp456
(dp457
g114
(lp458
sg119
g138
sg121
I00
sg122
I82
sg123
g138
sbag0
(g110
g2
Ntp459
Rp460
(dp461
g114
(lp462
sg119
g138
sg121
I00
sg122
I83
sg123
g138
sbag0
(g110
g2
Ntp463
Rp464
(dp465
g114
(lp466
sg119
g138
sg121
I00
sg122
I84
sg123
g138
sbag0
(g110
g2
Ntp467
Rp468
(dp469
g114
(lp470
sg119
g138
sg121
I00
sg122
I85
sg123
g138
sbag0
(g110
g2
Ntp471
Rp472
(dp473
g114
(lp474
sg119
g138
sg121
I00
sg122
I86
sg123
g138
sbag0
(g110
g2
Ntp475
Rp476
(dp477
g114
(lp478
sg119
g138
sg121
I00
sg122
I87
sg123
g138
sbag0
(g110
g2
Ntp479
Rp480
(dp481
g114
(lp482
sg119
g138
sg121
I00
sg122
I88
sg123
g138
sbag0
(g110
g2
Ntp483
Rp484
(dp485
g114
(lp486
sg119
g138
sg121
I00
sg122
I89
sg123
g138
sbag0
(g110
g2
Ntp487
Rp488
(dp489
g114
(lp490
sg119
g138
sg121
I00
sg122
I90
sg123
g138
sbag0
(g110
g2
Ntp491
Rp492
(dp493
g114
(lp494
sg119
g138
sg121
I00
sg122
I91
sg123
g138
sbag0
(g110
g2
Ntp495
Rp496
(dp497
g114
(lp498
sg119
g138
sg121
I00
sg122
I92
sg123
g138
sbag0
(g110
g2
Ntp499
Rp500
(dp501
g114
(lp502
sg119
g138
sg121
I00
sg122
I93
sg123
g138
sbag0
(g110
g2
Ntp503
Rp504
(dp505
g114
(lp506
sg119
g138
sg121
I00
sg122
I94
sg123
g138
sbag0
(g110
g2
Ntp507
Rp508
(dp509
g114
(lp510
sg119
g138
sg121
I00
sg122
I95
sg123
g138
sbag0
(g110
g2
Ntp511
Rp512
(dp513
g114
(lp514
sg119
g138
sg121
I00
sg122
I96
sg123
g138
sbag0
(g110
g2
Ntp515
Rp516
(dp517
g114
(lp518
sg119
g138
sg121
I00
sg122
I97
sg123
g138
sbag0
(g110
g2
Ntp519
Rp520
(dp521
g114
(lp522
sg119
g138
sg121
I00
sg122
I98
sg123
g138
sbag0
(g110
g2
Ntp523
Rp524
(dp525
g114
(lp526
sg119
g138
sg121
I00
sg122
I99
sg123
g138
sbasb.